---
triple:          'arm64-apple-darwin'
binary-path:     Map_compile_check.exe
relocations:
  - { offset: 0x305E, size: 0x8, addend: 0x0, symName: __ZNSt3__124__put_character_sequenceB8ne180100IcNS_11char_traitsIcEEEERNS_13basic_ostreamIT_T0_EES7_PKS4_m, symObjAddr: 0x2378, symBinAddr: 0x100005468, symSize: 0x1EC }
  - { offset: 0x3EEA, size: 0x8, addend: 0x0, symName: __ZNSt3__1lsB8ne180100INS_11char_traitsIcEEEERNS_13basic_ostreamIcT_EES6_PKc, symObjAddr: 0x48, symBinAddr: 0x100003138, symSize: 0x48 }
  - { offset: 0x3F30, size: 0x8, addend: 0x0, symName: __ZNSt3__14endlB8ne180100IcNS_11char_traitsIcEEEERNS_13basic_ostreamIT_T0_EES7_, symObjAddr: 0x944, symBinAddr: 0x100003A34, symSize: 0x58 }
  - { offset: 0x4441, size: 0x8, addend: 0x0, symName: __ZNSt3__1lsB8ne180100IcNS_11char_traitsIcEENS_9allocatorIcEEEERNS_13basic_ostreamIT_T0_EES9_RKNS_12basic_stringIS6_S7_T1_EE, symObjAddr: 0x1360, symBinAddr: 0x100004450, symSize: 0x4C }
  - { offset: 0x4499, size: 0x8, addend: 0x0, symName: __ZNSt3__116__pad_and_outputB8ne180100IcNS_11char_traitsIcEEEENS_19ostreambuf_iteratorIT_T0_EES6_PKS4_S8_S8_RNS_8ios_baseES4_, symObjAddr: 0x25B4, symBinAddr: 0x1000056A4, symSize: 0x240 }
  - { offset: 0x4568, size: 0x8, addend: 0x0, symName: __ZNSt3__112__to_addressB8ne180100IcEEPT_S2_, symObjAddr: 0x2AB0, symBinAddr: 0x100005BA0, symSize: 0x14 }
  - { offset: 0x45D0, size: 0x8, addend: 0x0, symName: __ZNSt3__19use_facetB8ne180100INS_5ctypeIcEEEERKT_RKNS_6localeE, symObjAddr: 0x2D68, symBinAddr: 0x100005E58, symSize: 0x2C }
  - { offset: 0x4A9D, size: 0x8, addend: 0x0, symName: __ZNSt3__118__constexpr_strlenB8ne180100EPKc, symObjAddr: 0x2E00, symBinAddr: 0x100005EF0, symSize: 0x24 }
  - { offset: 0x4AC9, size: 0x8, addend: 0x0, symName: __ZNSt3__1ltB8ne180100IcNS_11char_traitsIcEENS_9allocatorIcEEEEbRKNS_12basic_stringIT_T0_T1_EESB_, symObjAddr: 0x358C, symBinAddr: 0x10000667C, symSize: 0x38 }
  - { offset: 0x4B21, size: 0x8, addend: 0x0, symName: __ZNSt3__13minB8ne180100ImEERKT_S3_S3_, symObjAddr: 0x386C, symBinAddr: 0x10000695C, symSize: 0x2C }
  - { offset: 0x4B64, size: 0x8, addend: 0x0, symName: __ZNSt3__112__to_addressB8ne180100IKcEEPT_S3_, symObjAddr: 0x38F4, symBinAddr: 0x1000069E4, symSize: 0x14 }
  - { offset: 0x4BCC, size: 0x8, addend: 0x0, symName: __ZNSt3__13minB8ne180100ImNS_6__lessIvvEEEERKT_S5_S5_T0_, symObjAddr: 0x39C0, symBinAddr: 0x100006AB0, symSize: 0x54 }
  - { offset: 0x5C91, size: 0x8, addend: 0x0, symName: __ZlsRNSt3__113basic_ostreamIcNS_11char_traitsIcEEEERK4Duck, symObjAddr: 0x0, symBinAddr: 0x1000030F0, symSize: 0x48 }
  - { offset: 0x5CCB, size: 0x8, addend: 0x0, symName: __ZNK4Duck9getWealthEv, symObjAddr: 0x90, symBinAddr: 0x100003180, symSize: 0x18 }
  - { offset: 0x5CEF, size: 0x8, addend: 0x0, symName: _main, symObjAddr: 0xA8, symBinAddr: 0x100003198, symSize: 0x870 }
  - { offset: 0x5DF7, size: 0x8, addend: 0x0, symName: __ZNSt3__113basic_ostreamIcNS_11char_traitsIcEEElsB8ne180100EPFRS3_S4_E, symObjAddr: 0x918, symBinAddr: 0x100003A08, symSize: 0x2C }
  - { offset: 0x64BF, size: 0x8, addend: 0x0, symName: __ZN3MapINSt3__112basic_stringIcNS0_11char_traitsIcEENS0_9allocatorIcEEEEiNS0_4lessIS6_EEEC1Ev, symObjAddr: 0x99C, symBinAddr: 0x100003A8C, symSize: 0x2C }
  - { offset: 0x6BA9, size: 0x8, addend: 0x0, symName: __ZN3MapI4DuckNSt3__112basic_stringIcNS1_11char_traitsIcEENS1_9allocatorIcEEEE14DuckWealthLessEC1Ev, symObjAddr: 0x9C8, symBinAddr: 0x100003AB8, symSize: 0x2C }
  - { offset: 0x6BD3, size: 0x8, addend: 0x0, symName: __ZN16BinarySearchTreeINSt3__14pairINS0_12basic_stringIcNS0_11char_traitsIcEENS0_9allocatorIcEEEEiEEN3MapIS7_iNS0_4lessIS7_EEE8PairCompEE8IteratorC1Ev, symObjAddr: 0x9F4, symBinAddr: 0x100003AE4, symSize: 0x2C }
  - { offset: 0x6BFB, size: 0x8, addend: 0x0, symName: __ZN16BinarySearchTreeINSt3__14pairI4DuckNS0_12basic_stringIcNS0_11char_traitsIcEENS0_9allocatorIcEEEEEEN3MapIS2_S8_14DuckWealthLessE8PairCompEE8IteratorC1Ev, symObjAddr: 0xA20, symBinAddr: 0x100003B10, symSize: 0x2C }
  - { offset: 0x6C28, size: 0x8, addend: 0x0, symName: __ZN3MapINSt3__112basic_stringIcNS0_11char_traitsIcEENS0_9allocatorIcEEEEiNS0_4lessIS6_EEEC1ERKS9_, symObjAddr: 0xA4C, symBinAddr: 0x100003B3C, symSize: 0x34 }
  - { offset: 0x6C5F, size: 0x8, addend: 0x0, symName: __ZN3MapI4DuckNSt3__112basic_stringIcNS1_11char_traitsIcEENS1_9allocatorIcEEEE14DuckWealthLessEC1ERKS9_, symObjAddr: 0xA80, symBinAddr: 0x100003B70, symSize: 0x34 }
  - { offset: 0x6C96, size: 0x8, addend: 0x0, symName: __ZN3MapINSt3__112basic_stringIcNS0_11char_traitsIcEENS0_9allocatorIcEEEEiNS0_4lessIS6_EEEaSERKS9_, symObjAddr: 0xAB4, symBinAddr: 0x100003BA4, symSize: 0x40 }
  - { offset: 0x6CC9, size: 0x8, addend: 0x0, symName: __ZN3MapI4DuckNSt3__112basic_stringIcNS1_11char_traitsIcEENS1_9allocatorIcEEEE14DuckWealthLessEaSERKS9_, symObjAddr: 0xAF4, symBinAddr: 0x100003BE4, symSize: 0x40 }
  - { offset: 0x6CF7, size: 0x8, addend: 0x0, symName: __ZNK3MapINSt3__112basic_stringIcNS0_11char_traitsIcEENS0_9allocatorIcEEEEiNS0_4lessIS6_EEE5emptyEv, symObjAddr: 0xB34, symBinAddr: 0x100003C24, symSize: 0x28 }
  - { offset: 0x6D1B, size: 0x8, addend: 0x0, symName: __ZNK3MapI4DuckNSt3__112basic_stringIcNS1_11char_traitsIcEENS1_9allocatorIcEEEE14DuckWealthLessE5emptyEv, symObjAddr: 0xB5C, symBinAddr: 0x100003C4C, symSize: 0x28 }
  - { offset: 0x6D3F, size: 0x8, addend: 0x0, symName: __ZNK3MapINSt3__112basic_stringIcNS0_11char_traitsIcEENS0_9allocatorIcEEEEiNS0_4lessIS6_EEE4sizeEv, symObjAddr: 0xB84, symBinAddr: 0x100003C74, symSize: 0x24 }
  - { offset: 0x6D63, size: 0x8, addend: 0x0, symName: __ZNK3MapI4DuckNSt3__112basic_stringIcNS1_11char_traitsIcEENS1_9allocatorIcEEEE14DuckWealthLessE4sizeEv, symObjAddr: 0xBA8, symBinAddr: 0x100003C98, symSize: 0x24 }
  - { offset: 0x6D87, size: 0x8, addend: 0x0, symName: __ZNK3MapINSt3__112basic_stringIcNS0_11char_traitsIcEENS0_9allocatorIcEEEEiNS0_4lessIS6_EEE5beginEv, symObjAddr: 0xBCC, symBinAddr: 0x100003CBC, symSize: 0x24 }
  - { offset: 0x6DAB, size: 0x8, addend: 0x0, symName: __ZNK3MapI4DuckNSt3__112basic_stringIcNS1_11char_traitsIcEENS1_9allocatorIcEEEE14DuckWealthLessE5beginEv, symObjAddr: 0xBF0, symBinAddr: 0x100003CE0, symSize: 0x24 }
  - { offset: 0x6DCF, size: 0x8, addend: 0x0, symName: __ZNK3MapINSt3__112basic_stringIcNS0_11char_traitsIcEENS0_9allocatorIcEEEEiNS0_4lessIS6_EEE3endEv, symObjAddr: 0xC14, symBinAddr: 0x100003D04, symSize: 0x24 }
  - { offset: 0x6DF3, size: 0x8, addend: 0x0, symName: __ZNK3MapI4DuckNSt3__112basic_stringIcNS1_11char_traitsIcEENS1_9allocatorIcEEEE14DuckWealthLessE3endEv, symObjAddr: 0xC38, symBinAddr: 0x100003D28, symSize: 0x24 }
  - { offset: 0x6E17, size: 0x8, addend: 0x0, symName: __ZNK3MapINSt3__112basic_stringIcNS0_11char_traitsIcEENS0_9allocatorIcEEEEiNS0_4lessIS6_EEE4findERKS6_, symObjAddr: 0xC5C, symBinAddr: 0x100003D4C, symSize: 0x80 }
  - { offset: 0x6E4E, size: 0x8, addend: 0x0, symName: __ZNSt3__112basic_stringIcNS_11char_traitsIcEENS_9allocatorIcEEEC1B8ne180100ILi0EEEPKc, symObjAddr: 0xCDC, symBinAddr: 0x100003DCC, symSize: 0x34 }
  - { offset: 0x6E8B, size: 0x8, addend: 0x0, symName: __ZNK3MapI4DuckNSt3__112basic_stringIcNS1_11char_traitsIcEENS1_9allocatorIcEEEE14DuckWealthLessE4findERKS0_, symObjAddr: 0xD10, symBinAddr: 0x100003E00, symSize: 0xA0 }
  - { offset: 0x6EBD, size: 0x8, addend: 0x0, symName: __ZN4DuckC1Ev, symObjAddr: 0xDB0, symBinAddr: 0x100003EA0, symSize: 0x2C }
  - { offset: 0x6EE5, size: 0x8, addend: 0x0, symName: __ZN3MapINSt3__112basic_stringIcNS0_11char_traitsIcEENS0_9allocatorIcEEEEiNS0_4lessIS6_EEE6insertERKNS0_4pairIS6_iEE, symObjAddr: 0xDDC, symBinAddr: 0x100003ECC, symSize: 0xE8 }
  - { offset: 0x6F32, size: 0x8, addend: 0x0, symName: __ZNSt3__14pairINS_12basic_stringIcNS_11char_traitsIcEENS_9allocatorIcEEEEiEC1B8ne180100IRA1_KciLi0EEEOT_OT0_, symObjAddr: 0xEC4, symBinAddr: 0x100003FB4, symSize: 0x3C }
  - { offset: 0x6F8E, size: 0x8, addend: 0x0, symName: __ZNSt3__14pairINS_12basic_stringIcNS_11char_traitsIcEENS_9allocatorIcEEEEiED1Ev, symObjAddr: 0xF00, symBinAddr: 0x100003FF0, symSize: 0x2C }
  - { offset: 0x6FCE, size: 0x8, addend: 0x0, symName: __ZNSt3__14pairINS_12basic_stringIcNS_11char_traitsIcEENS_9allocatorIcEEEEiEC1B8ne180100IRA6_KciLi0EEEOT_OT0_, symObjAddr: 0xF2C, symBinAddr: 0x10000401C, symSize: 0x3C }
  - { offset: 0x702A, size: 0x8, addend: 0x0, symName: __ZN3MapI4DuckNSt3__112basic_stringIcNS1_11char_traitsIcEENS1_9allocatorIcEEEE14DuckWealthLessE6insertERKNS1_4pairIS0_S7_EE, symObjAddr: 0xF68, symBinAddr: 0x100004058, symSize: 0xE8 }
  - { offset: 0x7077, size: 0x8, addend: 0x0, symName: __ZNSt3__14pairI4DuckNS_12basic_stringIcNS_11char_traitsIcEENS_9allocatorIcEEEEEC1B8ne180100IS1_RA7_KcLi0EEEOT_OT0_, symObjAddr: 0x1050, symBinAddr: 0x100004140, symSize: 0x3C }
  - { offset: 0x70D3, size: 0x8, addend: 0x0, symName: __ZNSt3__14pairI4DuckNS_12basic_stringIcNS_11char_traitsIcEENS_9allocatorIcEEEEED1Ev, symObjAddr: 0x108C, symBinAddr: 0x10000417C, symSize: 0x2C }
  - { offset: 0x70FD, size: 0x8, addend: 0x0, symName: __ZN4DuckC1Ei, symObjAddr: 0x10B8, symBinAddr: 0x1000041A8, symSize: 0x34 }
  - { offset: 0x7149, size: 0x8, addend: 0x0, symName: __ZNSt3__14pairI4DuckNS_12basic_stringIcNS_11char_traitsIcEENS_9allocatorIcEEEEEC1B8ne180100IS1_RA8_KcLi0EEEOT_OT0_, symObjAddr: 0x10EC, symBinAddr: 0x1000041DC, symSize: 0x3C }
  - { offset: 0x71A5, size: 0x8, addend: 0x0, symName: __ZN3MapINSt3__112basic_stringIcNS0_11char_traitsIcEENS0_9allocatorIcEEEEiNS0_4lessIS6_EEEixERKS6_, symObjAddr: 0x1128, symBinAddr: 0x100004218, symSize: 0x10C }
  - { offset: 0x71D7, size: 0x8, addend: 0x0, symName: __ZN3MapI4DuckNSt3__112basic_stringIcNS1_11char_traitsIcEENS1_9allocatorIcEEEE14DuckWealthLessEixERKS0_, symObjAddr: 0x1234, symBinAddr: 0x100004324, symSize: 0x12C }
  - { offset: 0x7209, size: 0x8, addend: 0x0, symName: __ZNK16BinarySearchTreeINSt3__14pairINS0_12basic_stringIcNS0_11char_traitsIcEENS0_9allocatorIcEEEEiEEN3MapIS7_iNS0_4lessIS7_EEE8PairCompEE8IteratordeEv, symObjAddr: 0x13AC, symBinAddr: 0x10000449C, symSize: 0x18 }
  - { offset: 0x722D, size: 0x8, addend: 0x0, symName: __ZNK16BinarySearchTreeINSt3__14pairI4DuckNS0_12basic_stringIcNS0_11char_traitsIcEENS0_9allocatorIcEEEEEEN3MapIS2_S8_14DuckWealthLessE8PairCompEE8IteratordeEv, symObjAddr: 0x13C4, symBinAddr: 0x1000044B4, symSize: 0x18 }
  - { offset: 0x7251, size: 0x8, addend: 0x0, symName: __ZNSt3__112basic_stringIcNS_11char_traitsIcEENS_9allocatorIcEEEaSB8ne180100EPKc, symObjAddr: 0x13DC, symBinAddr: 0x1000044CC, symSize: 0x2C }
  - { offset: 0x7284, size: 0x8, addend: 0x0, symName: __ZN16BinarySearchTreeINSt3__14pairINS0_12basic_stringIcNS0_11char_traitsIcEENS0_9allocatorIcEEEEiEEN3MapIS7_iNS0_4lessIS7_EEE8PairCompEE8IteratorppEv, symObjAddr: 0x1408, symBinAddr: 0x1000044F8, symSize: 0x88 }
  - { offset: 0x72A8, size: 0x8, addend: 0x0, symName: __ZN16BinarySearchTreeINSt3__14pairI4DuckNS0_12basic_stringIcNS0_11char_traitsIcEENS0_9allocatorIcEEEEEEN3MapIS2_S8_14DuckWealthLessE8PairCompEE8IteratorppEv, symObjAddr: 0x1490, symBinAddr: 0x100004580, symSize: 0x88 }
  - { offset: 0x72CC, size: 0x8, addend: 0x0, symName: __ZN16BinarySearchTreeINSt3__14pairINS0_12basic_stringIcNS0_11char_traitsIcEENS0_9allocatorIcEEEEiEEN3MapIS7_iNS0_4lessIS7_EEE8PairCompEE8IteratorppEi, symObjAddr: 0x1518, symBinAddr: 0x100004608, symSize: 0x3C }
  - { offset: 0x7309, size: 0x8, addend: 0x0, symName: __ZN16BinarySearchTreeINSt3__14pairI4DuckNS0_12basic_stringIcNS0_11char_traitsIcEENS0_9allocatorIcEEEEEEN3MapIS2_S8_14DuckWealthLessE8PairCompEE8IteratorppEi, symObjAddr: 0x1554, symBinAddr: 0x100004644, symSize: 0x3C }
  - { offset: 0x7346, size: 0x8, addend: 0x0, symName: __ZNK16BinarySearchTreeINSt3__14pairINS0_12basic_stringIcNS0_11char_traitsIcEENS0_9allocatorIcEEEEiEEN3MapIS7_iNS0_4lessIS7_EEE8PairCompEE8IteratoreqERKSF_, symObjAddr: 0x1590, symBinAddr: 0x100004680, symSize: 0x30 }
  - { offset: 0x7378, size: 0x8, addend: 0x0, symName: __ZNK16BinarySearchTreeINSt3__14pairI4DuckNS0_12basic_stringIcNS0_11char_traitsIcEENS0_9allocatorIcEEEEEEN3MapIS2_S8_14DuckWealthLessE8PairCompEE8IteratoreqERKSF_, symObjAddr: 0x15C0, symBinAddr: 0x1000046B0, symSize: 0x30 }
  - { offset: 0x73AA, size: 0x8, addend: 0x0, symName: __ZNK16BinarySearchTreeINSt3__14pairINS0_12basic_stringIcNS0_11char_traitsIcEENS0_9allocatorIcEEEEiEEN3MapIS7_iNS0_4lessIS7_EEE8PairCompEE8IteratorneERKSF_, symObjAddr: 0x15F0, symBinAddr: 0x1000046E0, symSize: 0x30 }
  - { offset: 0x73DC, size: 0x8, addend: 0x0, symName: __ZNK16BinarySearchTreeINSt3__14pairI4DuckNS0_12basic_stringIcNS0_11char_traitsIcEENS0_9allocatorIcEEEEEEN3MapIS2_S8_14DuckWealthLessE8PairCompEE8IteratorneERKSF_, symObjAddr: 0x1620, symBinAddr: 0x100004710, symSize: 0x30 }
  - { offset: 0x740E, size: 0x8, addend: 0x0, symName: __ZN3MapI4DuckNSt3__112basic_stringIcNS1_11char_traitsIcEENS1_9allocatorIcEEEE14DuckWealthLessED1Ev, symObjAddr: 0x1650, symBinAddr: 0x100004740, symSize: 0x2C }
  - { offset: 0x7438, size: 0x8, addend: 0x0, symName: __ZN3MapINSt3__112basic_stringIcNS0_11char_traitsIcEENS0_9allocatorIcEEEEiNS0_4lessIS6_EEED1Ev, symObjAddr: 0x167C, symBinAddr: 0x10000476C, symSize: 0x2C }
  - { offset: 0x7462, size: 0x8, addend: 0x0, symName: __ZN3MapINSt3__112basic_stringIcNS0_11char_traitsIcEENS0_9allocatorIcEEEEiNS0_4lessIS6_EEEC2Ev, symObjAddr: 0x16A8, symBinAddr: 0x100004798, symSize: 0x2C }
  - { offset: 0x748C, size: 0x8, addend: 0x0, symName: __ZN16BinarySearchTreeINSt3__14pairINS0_12basic_stringIcNS0_11char_traitsIcEENS0_9allocatorIcEEEEiEEN3MapIS7_iNS0_4lessIS7_EEE8PairCompEEC1Ev, symObjAddr: 0x16D4, symBinAddr: 0x1000047C4, symSize: 0x2C }
  - { offset: 0x74B4, size: 0x8, addend: 0x0, symName: __ZN16BinarySearchTreeINSt3__14pairINS0_12basic_stringIcNS0_11char_traitsIcEENS0_9allocatorIcEEEEiEEN3MapIS7_iNS0_4lessIS7_EEE8PairCompEEC2Ev, symObjAddr: 0x1700, symBinAddr: 0x1000047F0, symSize: 0x18 }
  - { offset: 0x74DC, size: 0x8, addend: 0x0, symName: __ZN3MapI4DuckNSt3__112basic_stringIcNS1_11char_traitsIcEENS1_9allocatorIcEEEE14DuckWealthLessEC2Ev, symObjAddr: 0x1718, symBinAddr: 0x100004808, symSize: 0x2C }
  - { offset: 0x7506, size: 0x8, addend: 0x0, symName: __ZN16BinarySearchTreeINSt3__14pairI4DuckNS0_12basic_stringIcNS0_11char_traitsIcEENS0_9allocatorIcEEEEEEN3MapIS2_S8_14DuckWealthLessE8PairCompEEC1Ev, symObjAddr: 0x1744, symBinAddr: 0x100004834, symSize: 0x2C }
  - { offset: 0x752E, size: 0x8, addend: 0x0, symName: __ZN16BinarySearchTreeINSt3__14pairI4DuckNS0_12basic_stringIcNS0_11char_traitsIcEENS0_9allocatorIcEEEEEEN3MapIS2_S8_14DuckWealthLessE8PairCompEEC2Ev, symObjAddr: 0x1770, symBinAddr: 0x100004860, symSize: 0x18 }
  - { offset: 0x7556, size: 0x8, addend: 0x0, symName: __ZN3MapINSt3__112basic_stringIcNS0_11char_traitsIcEENS0_9allocatorIcEEEEiNS0_4lessIS6_EEEC2ERKS9_, symObjAddr: 0x1788, symBinAddr: 0x100004878, symSize: 0x40 }
  - { offset: 0x7588, size: 0x8, addend: 0x0, symName: __ZN16BinarySearchTreeINSt3__14pairINS0_12basic_stringIcNS0_11char_traitsIcEENS0_9allocatorIcEEEEiEEN3MapIS7_iNS0_4lessIS7_EEE8PairCompEEC1ERKSE_, symObjAddr: 0x17C8, symBinAddr: 0x1000048B8, symSize: 0x34 }
  - { offset: 0x75BE, size: 0x8, addend: 0x0, symName: __ZN16BinarySearchTreeINSt3__14pairINS0_12basic_stringIcNS0_11char_traitsIcEENS0_9allocatorIcEEEEiEEN3MapIS7_iNS0_4lessIS7_EEE8PairCompEEC2ERKSE_, symObjAddr: 0x17FC, symBinAddr: 0x1000048EC, symSize: 0x40 }
  - { offset: 0x75F4, size: 0x8, addend: 0x0, symName: __ZN16BinarySearchTreeINSt3__14pairINS0_12basic_stringIcNS0_11char_traitsIcEENS0_9allocatorIcEEEEiEEN3MapIS7_iNS0_4lessIS7_EEE8PairCompEE15copy_nodes_implEPNSE_4NodeE, symObjAddr: 0x183C, symBinAddr: 0x10000492C, symSize: 0xBC }
  - { offset: 0x7626, size: 0x8, addend: 0x0, symName: __ZN16BinarySearchTreeINSt3__14pairINS0_12basic_stringIcNS0_11char_traitsIcEENS0_9allocatorIcEEEEiEEN3MapIS7_iNS0_4lessIS7_EEE8PairCompEE4NodeC1Ev, symObjAddr: 0x18F8, symBinAddr: 0x1000049E8, symSize: 0x2C }
  - { offset: 0x764E, size: 0x8, addend: 0x0, symName: __ZNSt3__14pairINS_12basic_stringIcNS_11char_traitsIcEENS_9allocatorIcEEEEiEaSB8ne180100ERKS7_, symObjAddr: 0x1924, symBinAddr: 0x100004A14, symSize: 0x40 }
  - { offset: 0x7681, size: 0x8, addend: 0x0, symName: __ZN16BinarySearchTreeINSt3__14pairINS0_12basic_stringIcNS0_11char_traitsIcEENS0_9allocatorIcEEEEiEEN3MapIS7_iNS0_4lessIS7_EEE8PairCompEE4NodeC2Ev, symObjAddr: 0x1964, symBinAddr: 0x100004A54, symSize: 0x2C }
  - { offset: 0x76A9, size: 0x8, addend: 0x0, symName: __ZNSt3__14pairINS_12basic_stringIcNS_11char_traitsIcEENS_9allocatorIcEEEEiEC1B8ne180100ILb1ELi0EEEv, symObjAddr: 0x1990, symBinAddr: 0x100004A80, symSize: 0x2C }
  - { offset: 0x76E1, size: 0x8, addend: 0x0, symName: __ZNSt3__14pairINS_12basic_stringIcNS_11char_traitsIcEENS_9allocatorIcEEEEiEC2B8ne180100ILb1ELi0EEEv, symObjAddr: 0x19BC, symBinAddr: 0x100004AAC, symSize: 0x30 }
  - { offset: 0x7719, size: 0x8, addend: 0x0, symName: __ZNSt3__112basic_stringIcNS_11char_traitsIcEENS_9allocatorIcEEEC1B8ne180100Ev, symObjAddr: 0x19EC, symBinAddr: 0x100004ADC, symSize: 0x2C }
  - { offset: 0x7741, size: 0x8, addend: 0x0, symName: __ZNSt3__112basic_stringIcNS_11char_traitsIcEENS_9allocatorIcEEEC2B8ne180100Ev, symObjAddr: 0x1A18, symBinAddr: 0x100004B08, symSize: 0x48 }
  - { offset: 0x7773, size: 0x8, addend: 0x0, symName: __ZNSt3__117__compressed_pairINS_12basic_stringIcNS_11char_traitsIcEENS_9allocatorIcEEE5__repES5_EC1B8ne180100INS_16__value_init_tagENS_18__default_init_tagEEEOT_OT0_, symObjAddr: 0x1A60, symBinAddr: 0x100004B50, symSize: 0x3C }
  - { offset: 0x77C9, size: 0x8, addend: 0x0, symName: __ZNKSt3__112basic_stringIcNS_11char_traitsIcEENS_9allocatorIcEEE14__annotate_newB8ne180100Em, symObjAddr: 0x1AAC, symBinAddr: 0x100004B9C, symSize: 0x14 }
  - { offset: 0x77FC, size: 0x8, addend: 0x0, symName: __ZNSt3__117__compressed_pairINS_12basic_stringIcNS_11char_traitsIcEENS_9allocatorIcEEE5__repES5_EC2B8ne180100INS_16__value_init_tagENS_18__default_init_tagEEEOT_OT0_, symObjAddr: 0x1AC0, symBinAddr: 0x100004BB0, symSize: 0x3C }
  - { offset: 0x7852, size: 0x8, addend: 0x0, symName: __ZNSt3__122__compressed_pair_elemINS_12basic_stringIcNS_11char_traitsIcEENS_9allocatorIcEEE5__repELi0ELb0EEC2B8ne180100ENS_16__value_init_tagE, symObjAddr: 0x1AFC, symBinAddr: 0x100004BEC, symSize: 0x20 }
  - { offset: 0x7884, size: 0x8, addend: 0x0, symName: __ZNSt3__122__compressed_pair_elemINS_9allocatorIcEELi1ELb1EEC2B8ne180100ENS_18__default_init_tagE, symObjAddr: 0x1B1C, symBinAddr: 0x100004C0C, symSize: 0x2C }
  - { offset: 0x78B6, size: 0x8, addend: 0x0, symName: __ZNSt3__19allocatorIcEC2B8ne180100Ev, symObjAddr: 0x1B48, symBinAddr: 0x100004C38, symSize: 0x2C }
  - { offset: 0x78DE, size: 0x8, addend: 0x0, symName: __ZNSt3__116__non_trivial_ifILb1ENS_9allocatorIcEEEC2B8ne180100Ev, symObjAddr: 0x1B74, symBinAddr: 0x100004C64, symSize: 0x14 }
  - { offset: 0x7906, size: 0x8, addend: 0x0, symName: __ZN3MapI4DuckNSt3__112basic_stringIcNS1_11char_traitsIcEENS1_9allocatorIcEEEE14DuckWealthLessEC2ERKS9_, symObjAddr: 0x1B88, symBinAddr: 0x100004C78, symSize: 0x40 }
  - { offset: 0x7938, size: 0x8, addend: 0x0, symName: __ZN16BinarySearchTreeINSt3__14pairI4DuckNS0_12basic_stringIcNS0_11char_traitsIcEENS0_9allocatorIcEEEEEEN3MapIS2_S8_14DuckWealthLessE8PairCompEEC1ERKSE_, symObjAddr: 0x1BC8, symBinAddr: 0x100004CB8, symSize: 0x34 }
  - { offset: 0x796E, size: 0x8, addend: 0x0, symName: __ZN16BinarySearchTreeINSt3__14pairI4DuckNS0_12basic_stringIcNS0_11char_traitsIcEENS0_9allocatorIcEEEEEEN3MapIS2_S8_14DuckWealthLessE8PairCompEEC2ERKSE_, symObjAddr: 0x1BFC, symBinAddr: 0x100004CEC, symSize: 0x40 }
  - { offset: 0x79A4, size: 0x8, addend: 0x0, symName: __ZN16BinarySearchTreeINSt3__14pairI4DuckNS0_12basic_stringIcNS0_11char_traitsIcEENS0_9allocatorIcEEEEEEN3MapIS2_S8_14DuckWealthLessE8PairCompEE15copy_nodes_implEPNSE_4NodeE, symObjAddr: 0x1C3C, symBinAddr: 0x100004D2C, symSize: 0xBC }
  - { offset: 0x79D6, size: 0x8, addend: 0x0, symName: __ZN16BinarySearchTreeINSt3__14pairI4DuckNS0_12basic_stringIcNS0_11char_traitsIcEENS0_9allocatorIcEEEEEEN3MapIS2_S8_14DuckWealthLessE8PairCompEE4NodeC1Ev, symObjAddr: 0x1CF8, symBinAddr: 0x100004DE8, symSize: 0x2C }
  - { offset: 0x79FE, size: 0x8, addend: 0x0, symName: __ZNSt3__14pairI4DuckNS_12basic_stringIcNS_11char_traitsIcEENS_9allocatorIcEEEEEaSB8ne180100ERKS8_, symObjAddr: 0x1D24, symBinAddr: 0x100004E14, symSize: 0x48 }
  - { offset: 0x7A31, size: 0x8, addend: 0x0, symName: __ZN16BinarySearchTreeINSt3__14pairI4DuckNS0_12basic_stringIcNS0_11char_traitsIcEENS0_9allocatorIcEEEEEEN3MapIS2_S8_14DuckWealthLessE8PairCompEE4NodeC2Ev, symObjAddr: 0x1D6C, symBinAddr: 0x100004E5C, symSize: 0x2C }
  - { offset: 0x7A59, size: 0x8, addend: 0x0, symName: __ZNSt3__14pairI4DuckNS_12basic_stringIcNS_11char_traitsIcEENS_9allocatorIcEEEEEC1B8ne180100ILb1ELi0EEEv, symObjAddr: 0x1D98, symBinAddr: 0x100004E88, symSize: 0x2C }
  - { offset: 0x7A91, size: 0x8, addend: 0x0, symName: __ZNSt3__14pairI4DuckNS_12basic_stringIcNS_11char_traitsIcEENS_9allocatorIcEEEEEC2B8ne180100ILb1ELi0EEEv, symObjAddr: 0x1DC4, symBinAddr: 0x100004EB4, symSize: 0x38 }
  - { offset: 0x7AC9, size: 0x8, addend: 0x0, symName: __ZN16BinarySearchTreeINSt3__14pairINS0_12basic_stringIcNS0_11char_traitsIcEENS0_9allocatorIcEEEEiEEN3MapIS7_iNS0_4lessIS7_EEE8PairCompEEaSERKSE_, symObjAddr: 0x1DFC, symBinAddr: 0x100004EEC, symSize: 0x74 }
  - { offset: 0x7AFB, size: 0x8, addend: 0x0, symName: __ZN16BinarySearchTreeINSt3__14pairINS0_12basic_stringIcNS0_11char_traitsIcEENS0_9allocatorIcEEEEiEEN3MapIS7_iNS0_4lessIS7_EEE8PairCompEE18destroy_nodes_implEPNSE_4NodeE, symObjAddr: 0x1E70, symBinAddr: 0x100004F60, symSize: 0x8C }
  - { offset: 0x7B3C, size: 0x8, addend: 0x0, symName: __ZN16BinarySearchTreeINSt3__14pairINS0_12basic_stringIcNS0_11char_traitsIcEENS0_9allocatorIcEEEEiEEN3MapIS7_iNS0_4lessIS7_EEE8PairCompEE4NodeD1Ev, symObjAddr: 0x1EFC, symBinAddr: 0x100004FEC, symSize: 0x2C }
  - { offset: 0x7B66, size: 0x8, addend: 0x0, symName: __ZN16BinarySearchTreeINSt3__14pairINS0_12basic_stringIcNS0_11char_traitsIcEENS0_9allocatorIcEEEEiEEN3MapIS7_iNS0_4lessIS7_EEE8PairCompEE4NodeD2Ev, symObjAddr: 0x1F28, symBinAddr: 0x100005018, symSize: 0x2C }
  - { offset: 0x7B90, size: 0x8, addend: 0x0, symName: __ZN16BinarySearchTreeINSt3__14pairI4DuckNS0_12basic_stringIcNS0_11char_traitsIcEENS0_9allocatorIcEEEEEEN3MapIS2_S8_14DuckWealthLessE8PairCompEEaSERKSE_, symObjAddr: 0x1F54, symBinAddr: 0x100005044, symSize: 0x74 }
  - { offset: 0x7BC2, size: 0x8, addend: 0x0, symName: __ZN16BinarySearchTreeINSt3__14pairI4DuckNS0_12basic_stringIcNS0_11char_traitsIcEENS0_9allocatorIcEEEEEEN3MapIS2_S8_14DuckWealthLessE8PairCompEE18destroy_nodes_implEPNSE_4NodeE, symObjAddr: 0x1FC8, symBinAddr: 0x1000050B8, symSize: 0x8C }
  - { offset: 0x7C03, size: 0x8, addend: 0x0, symName: __ZN16BinarySearchTreeINSt3__14pairI4DuckNS0_12basic_stringIcNS0_11char_traitsIcEENS0_9allocatorIcEEEEEEN3MapIS2_S8_14DuckWealthLessE8PairCompEE4NodeD1Ev, symObjAddr: 0x2054, symBinAddr: 0x100005144, symSize: 0x2C }
  - { offset: 0x7C2D, size: 0x8, addend: 0x0, symName: __ZN16BinarySearchTreeINSt3__14pairI4DuckNS0_12basic_stringIcNS0_11char_traitsIcEENS0_9allocatorIcEEEEEEN3MapIS2_S8_14DuckWealthLessE8PairCompEE4NodeD2Ev, symObjAddr: 0x2080, symBinAddr: 0x100005170, symSize: 0x2C }
  - { offset: 0x7C57, size: 0x8, addend: 0x0, symName: __ZN4DuckC2Ev, symObjAddr: 0x20AC, symBinAddr: 0x10000519C, symSize: 0x18 }
  - { offset: 0x7C7F, size: 0x8, addend: 0x0, symName: __ZNSt3__14pairINS_12basic_stringIcNS_11char_traitsIcEENS_9allocatorIcEEEEiEC2B8ne180100IRA1_KciLi0EEEOT_OT0_, symObjAddr: 0x20C4, symBinAddr: 0x1000051B4, symSize: 0x44 }
  - { offset: 0x7CDB, size: 0x8, addend: 0x0, symName: __ZNSt3__14pairINS_12basic_stringIcNS_11char_traitsIcEENS_9allocatorIcEEEEiED2Ev, symObjAddr: 0x2108, symBinAddr: 0x1000051F8, symSize: 0x2C }
  - { offset: 0x7D05, size: 0x8, addend: 0x0, symName: __ZNSt3__14pairINS_12basic_stringIcNS_11char_traitsIcEENS_9allocatorIcEEEEiEC2B8ne180100IRA6_KciLi0EEEOT_OT0_, symObjAddr: 0x2134, symBinAddr: 0x100005224, symSize: 0x44 }
  - { offset: 0x7D61, size: 0x8, addend: 0x0, symName: __ZNSt3__14pairI4DuckNS_12basic_stringIcNS_11char_traitsIcEENS_9allocatorIcEEEEEC2B8ne180100IS1_RA7_KcLi0EEEOT_OT0_, symObjAddr: 0x2178, symBinAddr: 0x100005268, symSize: 0x48 }
  - { offset: 0x7DBD, size: 0x8, addend: 0x0, symName: __ZNSt3__14pairI4DuckNS_12basic_stringIcNS_11char_traitsIcEENS_9allocatorIcEEEEED2Ev, symObjAddr: 0x21C0, symBinAddr: 0x1000052B0, symSize: 0x30 }
  - { offset: 0x7DE7, size: 0x8, addend: 0x0, symName: __ZN4DuckC2Ei, symObjAddr: 0x21F0, symBinAddr: 0x1000052E0, symSize: 0x20 }
  - { offset: 0x7E1D, size: 0x8, addend: 0x0, symName: __ZNSt3__14pairI4DuckNS_12basic_stringIcNS_11char_traitsIcEENS_9allocatorIcEEEEEC2B8ne180100IS1_RA8_KcLi0EEEOT_OT0_, symObjAddr: 0x2210, symBinAddr: 0x100005300, symSize: 0x48 }
  - { offset: 0x7E79, size: 0x8, addend: 0x0, symName: __ZN3MapI4DuckNSt3__112basic_stringIcNS1_11char_traitsIcEENS1_9allocatorIcEEEE14DuckWealthLessED2Ev, symObjAddr: 0x2258, symBinAddr: 0x100005348, symSize: 0x2C }
  - { offset: 0x7EA3, size: 0x8, addend: 0x0, symName: __ZN16BinarySearchTreeINSt3__14pairI4DuckNS0_12basic_stringIcNS0_11char_traitsIcEENS0_9allocatorIcEEEEEEN3MapIS2_S8_14DuckWealthLessE8PairCompEED1Ev, symObjAddr: 0x2284, symBinAddr: 0x100005374, symSize: 0x2C }
  - { offset: 0x7ECB, size: 0x8, addend: 0x0, symName: __ZN16BinarySearchTreeINSt3__14pairI4DuckNS0_12basic_stringIcNS0_11char_traitsIcEENS0_9allocatorIcEEEEEEN3MapIS2_S8_14DuckWealthLessE8PairCompEED2Ev, symObjAddr: 0x22B0, symBinAddr: 0x1000053A0, symSize: 0x38 }
  - { offset: 0x7EF3, size: 0x8, addend: 0x0, symName: __ZN3MapINSt3__112basic_stringIcNS0_11char_traitsIcEENS0_9allocatorIcEEEEiNS0_4lessIS6_EEED2Ev, symObjAddr: 0x22E8, symBinAddr: 0x1000053D8, symSize: 0x2C }
  - { offset: 0x7F1D, size: 0x8, addend: 0x0, symName: __ZN16BinarySearchTreeINSt3__14pairINS0_12basic_stringIcNS0_11char_traitsIcEENS0_9allocatorIcEEEEiEEN3MapIS7_iNS0_4lessIS7_EEE8PairCompEED1Ev, symObjAddr: 0x2314, symBinAddr: 0x100005404, symSize: 0x2C }
  - { offset: 0x7F45, size: 0x8, addend: 0x0, symName: __ZN16BinarySearchTreeINSt3__14pairINS0_12basic_stringIcNS0_11char_traitsIcEENS0_9allocatorIcEEEEiEEN3MapIS7_iNS0_4lessIS7_EEE8PairCompEED2Ev, symObjAddr: 0x2340, symBinAddr: 0x100005430, symSize: 0x38 }
  - { offset: 0x7F6D, size: 0x8, addend: 0x0, symName: __ZNSt3__111char_traitsIcE6lengthB8ne180100EPKc, symObjAddr: 0x2564, symBinAddr: 0x100005654, symSize: 0x34 }
  - { offset: 0x7FAD, size: 0x8, addend: 0x0, symName: __ZNKSt3__113basic_ostreamIcNS_11char_traitsIcEEE6sentrycvbB8ne180100Ev, symObjAddr: 0x2598, symBinAddr: 0x100005688, symSize: 0x1C }
  - { offset: 0x7FD1, size: 0x8, addend: 0x0, symName: __ZNSt3__119ostreambuf_iteratorIcNS_11char_traitsIcEEEC1B8ne180100ERNS_13basic_ostreamIcS2_EE, symObjAddr: 0x27F4, symBinAddr: 0x1000058E4, symSize: 0x34 }
  - { offset: 0x8007, size: 0x8, addend: 0x0, symName: __ZNKSt3__18ios_base5flagsB8ne180100Ev, symObjAddr: 0x2828, symBinAddr: 0x100005918, symSize: 0x18 }
  - { offset: 0x802D, size: 0x8, addend: 0x0, symName: __ZNKSt3__19basic_iosIcNS_11char_traitsIcEEE4fillB8ne180100Ev, symObjAddr: 0x2840, symBinAddr: 0x100005930, symSize: 0x64 }
  - { offset: 0x8053, size: 0x8, addend: 0x0, symName: __ZNKSt3__119ostreambuf_iteratorIcNS_11char_traitsIcEEE6failedB8ne180100Ev, symObjAddr: 0x28A4, symBinAddr: 0x100005994, symSize: 0x24 }
  - { offset: 0x8077, size: 0x8, addend: 0x0, symName: __ZNSt3__19basic_iosIcNS_11char_traitsIcEEE8setstateB8ne180100Ej, symObjAddr: 0x28C8, symBinAddr: 0x1000059B8, symSize: 0x2C }
  - { offset: 0x80AA, size: 0x8, addend: 0x0, symName: __ZNKSt3__18ios_base5widthB8ne180100Ev, symObjAddr: 0x28F4, symBinAddr: 0x1000059E4, symSize: 0x18 }
  - { offset: 0x80D0, size: 0x8, addend: 0x0, symName: __ZNSt3__115basic_streambufIcNS_11char_traitsIcEEE5sputnB8ne180100EPKcl, symObjAddr: 0x290C, symBinAddr: 0x1000059FC, symSize: 0x3C }
  - { offset: 0x8110, size: 0x8, addend: 0x0, symName: __ZNSt3__112basic_stringIcNS_11char_traitsIcEENS_9allocatorIcEEEC1B8ne180100Emc, symObjAddr: 0x2948, symBinAddr: 0x100005A38, symSize: 0x3C }
  - { offset: 0x8156, size: 0x8, addend: 0x0, symName: __ZNSt3__112basic_stringIcNS_11char_traitsIcEENS_9allocatorIcEEE4dataB8ne180100Ev, symObjAddr: 0x2984, symBinAddr: 0x100005A74, symSize: 0x28 }
  - { offset: 0x817A, size: 0x8, addend: 0x0, symName: __ZNSt3__18ios_base5widthB8ne180100El, symObjAddr: 0x29AC, symBinAddr: 0x100005A9C, symSize: 0x2C }
  - { offset: 0x81BE, size: 0x8, addend: 0x0, symName: __ZNSt3__112basic_stringIcNS_11char_traitsIcEENS_9allocatorIcEEEC2B8ne180100Emc, symObjAddr: 0x29D8, symBinAddr: 0x100005AC8, symSize: 0x4C }
  - { offset: 0x8204, size: 0x8, addend: 0x0, symName: __ZNSt3__117__compressed_pairINS_12basic_stringIcNS_11char_traitsIcEENS_9allocatorIcEEE5__repES5_EC1B8ne180100INS_18__default_init_tagESA_EEOT_OT0_, symObjAddr: 0x2A24, symBinAddr: 0x100005B14, symSize: 0x3C }
  - { offset: 0x825A, size: 0x8, addend: 0x0, symName: __ZNSt3__117__compressed_pairINS_12basic_stringIcNS_11char_traitsIcEENS_9allocatorIcEEE5__repES5_EC2B8ne180100INS_18__default_init_tagESA_EEOT_OT0_, symObjAddr: 0x2A60, symBinAddr: 0x100005B50, symSize: 0x3C }
  - { offset: 0x82B0, size: 0x8, addend: 0x0, symName: __ZNSt3__122__compressed_pair_elemINS_12basic_stringIcNS_11char_traitsIcEENS_9allocatorIcEEE5__repELi0ELb0EEC2B8ne180100ENS_18__default_init_tagE, symObjAddr: 0x2A9C, symBinAddr: 0x100005B8C, symSize: 0x14 }
  - { offset: 0x82E2, size: 0x8, addend: 0x0, symName: __ZNSt3__112basic_stringIcNS_11char_traitsIcEENS_9allocatorIcEEE13__get_pointerB8ne180100Ev, symObjAddr: 0x2AC4, symBinAddr: 0x100005BB4, symSize: 0x54 }
  - { offset: 0x8306, size: 0x8, addend: 0x0, symName: __ZNKSt3__112basic_stringIcNS_11char_traitsIcEENS_9allocatorIcEEE9__is_longB8ne180100Ev, symObjAddr: 0x2B18, symBinAddr: 0x100005C08, symSize: 0x38 }
  - { offset: 0x832A, size: 0x8, addend: 0x0, symName: __ZNSt3__112basic_stringIcNS_11char_traitsIcEENS_9allocatorIcEEE18__get_long_pointerB8ne180100Ev, symObjAddr: 0x2B50, symBinAddr: 0x100005C40, symSize: 0x28 }
  - { offset: 0x834E, size: 0x8, addend: 0x0, symName: __ZNSt3__112basic_stringIcNS_11char_traitsIcEENS_9allocatorIcEEE19__get_short_pointerB8ne180100Ev, symObjAddr: 0x2B78, symBinAddr: 0x100005C68, symSize: 0x28 }
  - { offset: 0x8372, size: 0x8, addend: 0x0, symName: __ZNKSt3__117__compressed_pairINS_12basic_stringIcNS_11char_traitsIcEENS_9allocatorIcEEE5__repES5_E5firstB8ne180100Ev, symObjAddr: 0x2BA0, symBinAddr: 0x100005C90, symSize: 0x24 }
  - { offset: 0x8396, size: 0x8, addend: 0x0, symName: __ZNKSt3__122__compressed_pair_elemINS_12basic_stringIcNS_11char_traitsIcEENS_9allocatorIcEEE5__repELi0ELb0EE5__getB8ne180100Ev, symObjAddr: 0x2BC4, symBinAddr: 0x100005CB4, symSize: 0x14 }
  - { offset: 0x83BA, size: 0x8, addend: 0x0, symName: __ZNSt3__117__compressed_pairINS_12basic_stringIcNS_11char_traitsIcEENS_9allocatorIcEEE5__repES5_E5firstB8ne180100Ev, symObjAddr: 0x2BD8, symBinAddr: 0x100005CC8, symSize: 0x24 }
  - { offset: 0x83DE, size: 0x8, addend: 0x0, symName: __ZNSt3__122__compressed_pair_elemINS_12basic_stringIcNS_11char_traitsIcEENS_9allocatorIcEEE5__repELi0ELb0EE5__getB8ne180100Ev, symObjAddr: 0x2BFC, symBinAddr: 0x100005CEC, symSize: 0x14 }
  - { offset: 0x8402, size: 0x8, addend: 0x0, symName: __ZNSt3__114pointer_traitsIPcE10pointer_toB8ne180100ERc, symObjAddr: 0x2C10, symBinAddr: 0x100005D00, symSize: 0x14 }
  - { offset: 0x8424, size: 0x8, addend: 0x0, symName: __ZNSt3__119ostreambuf_iteratorIcNS_11char_traitsIcEEEC2B8ne180100ERNS_13basic_ostreamIcS2_EE, symObjAddr: 0x2C24, symBinAddr: 0x100005D14, symSize: 0x54 }
  - { offset: 0x845A, size: 0x8, addend: 0x0, symName: __ZNKSt3__19basic_iosIcNS_11char_traitsIcEEE5rdbufB8ne180100Ev, symObjAddr: 0x2C78, symBinAddr: 0x100005D68, symSize: 0x24 }
  - { offset: 0x8480, size: 0x8, addend: 0x0, symName: __ZNKSt3__18ios_base5rdbufB8ne180100Ev, symObjAddr: 0x2C9C, symBinAddr: 0x100005D8C, symSize: 0x18 }
  - { offset: 0x84A4, size: 0x8, addend: 0x0, symName: __ZNSt3__111char_traitsIcE11eq_int_typeB8ne180100Eii, symObjAddr: 0x2CB4, symBinAddr: 0x100005DA4, symSize: 0x28 }
  - { offset: 0x84D6, size: 0x8, addend: 0x0, symName: __ZNSt3__111char_traitsIcE3eofB8ne180100Ev, symObjAddr: 0x2CDC, symBinAddr: 0x100005DCC, symSize: 0x8 }
  - { offset: 0x84E9, size: 0x8, addend: 0x0, symName: __ZNKSt3__19basic_iosIcNS_11char_traitsIcEEE5widenB8ne180100Ec, symObjAddr: 0x2CE4, symBinAddr: 0x100005DD4, symSize: 0x84 }
  - { offset: 0x8560, size: 0x8, addend: 0x0, symName: __ZNKSt3__15ctypeIcE5widenB8ne180100Ec, symObjAddr: 0x2D94, symBinAddr: 0x100005E84, symSize: 0x38 }
  - { offset: 0x8593, size: 0x8, addend: 0x0, symName: __ZNSt3__18ios_base8setstateB8ne180100Ej, symObjAddr: 0x2DCC, symBinAddr: 0x100005EBC, symSize: 0x34 }
  - { offset: 0x85C8, size: 0x8, addend: 0x0, symName: __ZN16BinarySearchTreeINSt3__14pairINS0_12basic_stringIcNS0_11char_traitsIcEENS0_9allocatorIcEEEEiEEN3MapIS7_iNS0_4lessIS7_EEE8PairCompEE8IteratorC2Ev, symObjAddr: 0x2E24, symBinAddr: 0x100005F14, symSize: 0x1C }
  - { offset: 0x85F0, size: 0x8, addend: 0x0, symName: __ZN16BinarySearchTreeINSt3__14pairI4DuckNS0_12basic_stringIcNS0_11char_traitsIcEENS0_9allocatorIcEEEEEEN3MapIS2_S8_14DuckWealthLessE8PairCompEE8IteratorC2Ev, symObjAddr: 0x2E40, symBinAddr: 0x100005F30, symSize: 0x1C }
  - { offset: 0x8618, size: 0x8, addend: 0x0, symName: __ZNK16BinarySearchTreeINSt3__14pairINS0_12basic_stringIcNS0_11char_traitsIcEENS0_9allocatorIcEEEEiEEN3MapIS7_iNS0_4lessIS7_EEE8PairCompEE5emptyEv, symObjAddr: 0x2E5C, symBinAddr: 0x100005F4C, symSize: 0x2C }
  - { offset: 0x863C, size: 0x8, addend: 0x0, symName: __ZN16BinarySearchTreeINSt3__14pairINS0_12basic_stringIcNS0_11char_traitsIcEENS0_9allocatorIcEEEEiEEN3MapIS7_iNS0_4lessIS7_EEE8PairCompEE10empty_implEPKNSE_4NodeE, symObjAddr: 0x2E88, symBinAddr: 0x100005F78, symSize: 0x20 }
  - { offset: 0x865F, size: 0x8, addend: 0x0, symName: __ZNK16BinarySearchTreeINSt3__14pairI4DuckNS0_12basic_stringIcNS0_11char_traitsIcEENS0_9allocatorIcEEEEEEN3MapIS2_S8_14DuckWealthLessE8PairCompEE5emptyEv, symObjAddr: 0x2EA8, symBinAddr: 0x100005F98, symSize: 0x2C }
  - { offset: 0x8683, size: 0x8, addend: 0x0, symName: __ZN16BinarySearchTreeINSt3__14pairI4DuckNS0_12basic_stringIcNS0_11char_traitsIcEENS0_9allocatorIcEEEEEEN3MapIS2_S8_14DuckWealthLessE8PairCompEE10empty_implEPKNSE_4NodeE, symObjAddr: 0x2ED4, symBinAddr: 0x100005FC4, symSize: 0x20 }
  - { offset: 0x86A6, size: 0x8, addend: 0x0, symName: __ZNK16BinarySearchTreeINSt3__14pairINS0_12basic_stringIcNS0_11char_traitsIcEENS0_9allocatorIcEEEEiEEN3MapIS7_iNS0_4lessIS7_EEE8PairCompEE4sizeEv, symObjAddr: 0x2EF4, symBinAddr: 0x100005FE4, symSize: 0x30 }
  - { offset: 0x86CA, size: 0x8, addend: 0x0, symName: __ZN16BinarySearchTreeINSt3__14pairINS0_12basic_stringIcNS0_11char_traitsIcEENS0_9allocatorIcEEEEiEEN3MapIS7_iNS0_4lessIS7_EEE8PairCompEE9size_implEPKNSE_4NodeE, symObjAddr: 0x2F24, symBinAddr: 0x100006014, symSize: 0x6C }
  - { offset: 0x86ED, size: 0x8, addend: 0x0, symName: __ZNK16BinarySearchTreeINSt3__14pairI4DuckNS0_12basic_stringIcNS0_11char_traitsIcEENS0_9allocatorIcEEEEEEN3MapIS2_S8_14DuckWealthLessE8PairCompEE4sizeEv, symObjAddr: 0x2F90, symBinAddr: 0x100006080, symSize: 0x30 }
  - { offset: 0x8711, size: 0x8, addend: 0x0, symName: __ZN16BinarySearchTreeINSt3__14pairI4DuckNS0_12basic_stringIcNS0_11char_traitsIcEENS0_9allocatorIcEEEEEEN3MapIS2_S8_14DuckWealthLessE8PairCompEE9size_implEPKNSE_4NodeE, symObjAddr: 0x2FC0, symBinAddr: 0x1000060B0, symSize: 0x6C }
  - { offset: 0x8734, size: 0x8, addend: 0x0, symName: __ZNK16BinarySearchTreeINSt3__14pairINS0_12basic_stringIcNS0_11char_traitsIcEENS0_9allocatorIcEEEEiEEN3MapIS7_iNS0_4lessIS7_EEE8PairCompEE5beginEv, symObjAddr: 0x302C, symBinAddr: 0x10000611C, symSize: 0x84 }
  - { offset: 0x8758, size: 0x8, addend: 0x0, symName: __ZN16BinarySearchTreeINSt3__14pairINS0_12basic_stringIcNS0_11char_traitsIcEENS0_9allocatorIcEEEEiEEN3MapIS7_iNS0_4lessIS7_EEE8PairCompEE16min_element_implEPNSE_4NodeE, symObjAddr: 0x30B0, symBinAddr: 0x1000061A0, symSize: 0x74 }
  - { offset: 0x877B, size: 0x8, addend: 0x0, symName: __ZN16BinarySearchTreeINSt3__14pairINS0_12basic_stringIcNS0_11char_traitsIcEENS0_9allocatorIcEEEEiEEN3MapIS7_iNS0_4lessIS7_EEE8PairCompEE8IteratorC1EPNSE_4NodeESH_SD_, symObjAddr: 0x3124, symBinAddr: 0x100006214, symSize: 0x4C }
  - { offset: 0x87CD, size: 0x8, addend: 0x0, symName: __ZN16BinarySearchTreeINSt3__14pairINS0_12basic_stringIcNS0_11char_traitsIcEENS0_9allocatorIcEEEEiEEN3MapIS7_iNS0_4lessIS7_EEE8PairCompEE8IteratorC2EPNSE_4NodeESH_SD_, symObjAddr: 0x3170, symBinAddr: 0x100006260, symSize: 0x3C }
  - { offset: 0x881F, size: 0x8, addend: 0x0, symName: __ZNK16BinarySearchTreeINSt3__14pairI4DuckNS0_12basic_stringIcNS0_11char_traitsIcEENS0_9allocatorIcEEEEEEN3MapIS2_S8_14DuckWealthLessE8PairCompEE5beginEv, symObjAddr: 0x31AC, symBinAddr: 0x10000629C, symSize: 0x84 }
  - { offset: 0x8843, size: 0x8, addend: 0x0, symName: __ZN16BinarySearchTreeINSt3__14pairI4DuckNS0_12basic_stringIcNS0_11char_traitsIcEENS0_9allocatorIcEEEEEEN3MapIS2_S8_14DuckWealthLessE8PairCompEE16min_element_implEPNSE_4NodeE, symObjAddr: 0x3230, symBinAddr: 0x100006320, symSize: 0x74 }
  - { offset: 0x8866, size: 0x8, addend: 0x0, symName: __ZN16BinarySearchTreeINSt3__14pairI4DuckNS0_12basic_stringIcNS0_11char_traitsIcEENS0_9allocatorIcEEEEEEN3MapIS2_S8_14DuckWealthLessE8PairCompEE8IteratorC1EPNSE_4NodeESH_SD_, symObjAddr: 0x32A4, symBinAddr: 0x100006394, symSize: 0x4C }
  - { offset: 0x88B8, size: 0x8, addend: 0x0, symName: __ZN16BinarySearchTreeINSt3__14pairI4DuckNS0_12basic_stringIcNS0_11char_traitsIcEENS0_9allocatorIcEEEEEEN3MapIS2_S8_14DuckWealthLessE8PairCompEE8IteratorC2EPNSE_4NodeESH_SD_, symObjAddr: 0x32F0, symBinAddr: 0x1000063E0, symSize: 0x3C }
  - { offset: 0x890A, size: 0x8, addend: 0x0, symName: __ZNK16BinarySearchTreeINSt3__14pairINS0_12basic_stringIcNS0_11char_traitsIcEENS0_9allocatorIcEEEEiEEN3MapIS7_iNS0_4lessIS7_EEE8PairCompEE3endEv, symObjAddr: 0x332C, symBinAddr: 0x10000641C, symSize: 0x2C }
  - { offset: 0x892E, size: 0x8, addend: 0x0, symName: __ZNK16BinarySearchTreeINSt3__14pairI4DuckNS0_12basic_stringIcNS0_11char_traitsIcEENS0_9allocatorIcEEEEEEN3MapIS2_S8_14DuckWealthLessE8PairCompEE3endEv, symObjAddr: 0x3358, symBinAddr: 0x100006448, symSize: 0x2C }
  - { offset: 0x8952, size: 0x8, addend: 0x0, symName: __ZNK16BinarySearchTreeINSt3__14pairINS0_12basic_stringIcNS0_11char_traitsIcEENS0_9allocatorIcEEEEiEEN3MapIS7_iNS0_4lessIS7_EEE8PairCompEE4findERKS8_, symObjAddr: 0x3384, symBinAddr: 0x100006474, symSize: 0x74 }
  - { offset: 0x8985, size: 0x8, addend: 0x0, symName: __ZNSt3__14pairINS_12basic_stringIcNS_11char_traitsIcEENS_9allocatorIcEEEEiEC1B8ne180100IRKS6_iLi0EEEOT_OT0_, symObjAddr: 0x33F8, symBinAddr: 0x1000064E8, symSize: 0x3C }
  - { offset: 0x89E1, size: 0x8, addend: 0x0, symName: __ZN16BinarySearchTreeINSt3__14pairINS0_12basic_stringIcNS0_11char_traitsIcEENS0_9allocatorIcEEEEiEEN3MapIS7_iNS0_4lessIS7_EEE8PairCompEE9find_implEPNSE_4NodeERKS8_SD_, symObjAddr: 0x3434, symBinAddr: 0x100006524, symSize: 0xEC }
  - { offset: 0x8A22, size: 0x8, addend: 0x0, symName: __ZNK3MapINSt3__112basic_stringIcNS0_11char_traitsIcEENS0_9allocatorIcEEEEiNS0_4lessIS6_EEE8PairCompclERKNS0_4pairIS6_iEESE_, symObjAddr: 0x3520, symBinAddr: 0x100006610, symSize: 0x38 }
  - { offset: 0x8A62, size: 0x8, addend: 0x0, symName: __ZNKSt3__14lessINS_12basic_stringIcNS_11char_traitsIcEENS_9allocatorIcEEEEEclB8ne180100ERKS6_S9_, symObjAddr: 0x3558, symBinAddr: 0x100006648, symSize: 0x34 }
  - { offset: 0x8AA4, size: 0x8, addend: 0x0, symName: __ZNKSt3__112basic_stringIcNS_11char_traitsIcEENS_9allocatorIcEEE7compareB8ne180100ERKS5_, symObjAddr: 0x35C4, symBinAddr: 0x1000066B4, symSize: 0x4C }
  - { offset: 0x8AD9, size: 0x8, addend: 0x0, symName: __ZNKSt3__112basic_stringIcNS_11char_traitsIcEENS_9allocatorIcEEE7compareINS_17basic_string_viewIcS2_EELi0EEEiRKT_, symObjAddr: 0x3610, symBinAddr: 0x100006700, symSize: 0x12C }
  - { offset: 0x8B5A, size: 0x8, addend: 0x0, symName: __ZNKSt3__112basic_stringIcNS_11char_traitsIcEENS_9allocatorIcEEEcvNS_17basic_string_viewIcS2_EEB8ne180100Ev, symObjAddr: 0x373C, symBinAddr: 0x10000682C, symSize: 0x50 }
  - { offset: 0x8B7E, size: 0x8, addend: 0x0, symName: __ZNKSt3__112basic_stringIcNS_11char_traitsIcEENS_9allocatorIcEEE4sizeB8ne180100Ev, symObjAddr: 0x378C, symBinAddr: 0x10000687C, symSize: 0x54 }
  - { offset: 0x8BA2, size: 0x8, addend: 0x0, symName: __ZNKSt3__117basic_string_viewIcNS_11char_traitsIcEEE4sizeB8ne180100Ev, symObjAddr: 0x37E0, symBinAddr: 0x1000068D0, symSize: 0x18 }
  - { offset: 0x8BC6, size: 0x8, addend: 0x0, symName: __ZNSt3__111char_traitsIcE7compareB8ne180100EPKcS3_m, symObjAddr: 0x37F8, symBinAddr: 0x1000068E8, symSize: 0x34 }
  - { offset: 0x8C04, size: 0x8, addend: 0x0, symName: __ZNKSt3__112basic_stringIcNS_11char_traitsIcEENS_9allocatorIcEEE4dataB8ne180100Ev, symObjAddr: 0x382C, symBinAddr: 0x10000691C, symSize: 0x28 }
  - { offset: 0x8C28, size: 0x8, addend: 0x0, symName: __ZNKSt3__117basic_string_viewIcNS_11char_traitsIcEEE4dataB8ne180100Ev, symObjAddr: 0x3854, symBinAddr: 0x100006944, symSize: 0x18 }
  - { offset: 0x8C4C, size: 0x8, addend: 0x0, symName: __ZNKSt3__112basic_stringIcNS_11char_traitsIcEENS_9allocatorIcEEE15__get_long_sizeB8ne180100Ev, symObjAddr: 0x3898, symBinAddr: 0x100006988, symSize: 0x28 }
  - { offset: 0x8C70, size: 0x8, addend: 0x0, symName: __ZNKSt3__112basic_stringIcNS_11char_traitsIcEENS_9allocatorIcEEE16__get_short_sizeB8ne180100Ev, symObjAddr: 0x38C0, symBinAddr: 0x1000069B0, symSize: 0x34 }
  - { offset: 0x8C94, size: 0x8, addend: 0x0, symName: __ZNKSt3__112basic_stringIcNS_11char_traitsIcEENS_9allocatorIcEEE13__get_pointerB8ne180100Ev, symObjAddr: 0x3908, symBinAddr: 0x1000069F8, symSize: 0x54 }
  - { offset: 0x8CB8, size: 0x8, addend: 0x0, symName: __ZNKSt3__112basic_stringIcNS_11char_traitsIcEENS_9allocatorIcEEE18__get_long_pointerB8ne180100Ev, symObjAddr: 0x395C, symBinAddr: 0x100006A4C, symSize: 0x28 }
  - { offset: 0x8CDC, size: 0x8, addend: 0x0, symName: __ZNKSt3__112basic_stringIcNS_11char_traitsIcEENS_9allocatorIcEEE19__get_short_pointerB8ne180100Ev, symObjAddr: 0x3984, symBinAddr: 0x100006A74, symSize: 0x28 }
  - { offset: 0x8D00, size: 0x8, addend: 0x0, symName: __ZNSt3__114pointer_traitsIPKcE10pointer_toB8ne180100ERS1_, symObjAddr: 0x39AC, symBinAddr: 0x100006A9C, symSize: 0x14 }
  - { offset: 0x8D36, size: 0x8, addend: 0x0, symName: __ZNKSt3__16__lessIvvEclB8ne180100ImmEEbRKT_RKT0_, symObjAddr: 0x3A14, symBinAddr: 0x100006B04, symSize: 0x34 }
  - { offset: 0x8D88, size: 0x8, addend: 0x0, symName: __ZNSt3__117basic_string_viewIcNS_11char_traitsIcEEEC1B8ne180100EPKcm, symObjAddr: 0x3A48, symBinAddr: 0x100006B38, symSize: 0x3C }
  - { offset: 0x8DCE, size: 0x8, addend: 0x0, symName: __ZNSt3__117basic_string_viewIcNS_11char_traitsIcEEEC2B8ne180100EPKcm, symObjAddr: 0x3A84, symBinAddr: 0x100006B74, symSize: 0x2C }
  - { offset: 0x8E14, size: 0x8, addend: 0x0, symName: __ZNSt3__14pairINS_12basic_stringIcNS_11char_traitsIcEENS_9allocatorIcEEEEiEC2B8ne180100IRKS6_iLi0EEEOT_OT0_, symObjAddr: 0x3AB0, symBinAddr: 0x100006BA0, symSize: 0x44 }
  - { offset: 0x8E70, size: 0x8, addend: 0x0, symName: __ZNSt3__112basic_stringIcNS_11char_traitsIcEENS_9allocatorIcEEEC2B8ne180100ILi0EEEPKc, symObjAddr: 0x3AF4, symBinAddr: 0x100006BE4, symSize: 0x58 }
  - { offset: 0x8EAD, size: 0x8, addend: 0x0, symName: __ZNK16BinarySearchTreeINSt3__14pairI4DuckNS0_12basic_stringIcNS0_11char_traitsIcEENS0_9allocatorIcEEEEEEN3MapIS2_S8_14DuckWealthLessE8PairCompEE4findERKS9_, symObjAddr: 0x3B4C, symBinAddr: 0x100006C3C, symSize: 0x74 }
  - { offset: 0x8EE5, size: 0x8, addend: 0x0, symName: __ZNSt3__14pairI4DuckNS_12basic_stringIcNS_11char_traitsIcEENS_9allocatorIcEEEEEC1B8ne180100IRKS1_S7_Li0EEEOT_OT0_, symObjAddr: 0x3BC0, symBinAddr: 0x100006CB0, symSize: 0x3C }
  - { offset: 0x8F41, size: 0x8, addend: 0x0, symName: __ZN16BinarySearchTreeINSt3__14pairI4DuckNS0_12basic_stringIcNS0_11char_traitsIcEENS0_9allocatorIcEEEEEEN3MapIS2_S8_14DuckWealthLessE8PairCompEE9find_implEPNSE_4NodeERKS9_SD_, symObjAddr: 0x3BFC, symBinAddr: 0x100006CEC, symSize: 0xEC }
  - { offset: 0x8F82, size: 0x8, addend: 0x0, symName: __ZNK3MapI4DuckNSt3__112basic_stringIcNS1_11char_traitsIcEENS1_9allocatorIcEEEE14DuckWealthLessE8PairCompclERKNS1_4pairIS0_S7_EESE_, symObjAddr: 0x3CE8, symBinAddr: 0x100006DD8, symSize: 0x38 }
  - { offset: 0x8FC2, size: 0x8, addend: 0x0, symName: __ZNK14DuckWealthLessclERK4DuckS2_, symObjAddr: 0x3D20, symBinAddr: 0x100006E10, symSize: 0x4C }
  - { offset: 0x9002, size: 0x8, addend: 0x0, symName: __ZNSt3__14pairI4DuckNS_12basic_stringIcNS_11char_traitsIcEENS_9allocatorIcEEEEEC2B8ne180100IRKS1_S7_Li0EEEOT_OT0_, symObjAddr: 0x3D6C, symBinAddr: 0x100006E5C, symSize: 0x48 }
  - { offset: 0x905E, size: 0x8, addend: 0x0, symName: __ZNSt3__112basic_stringIcNS_11char_traitsIcEENS_9allocatorIcEEEC1B8ne180100EOS5_, symObjAddr: 0x3DB4, symBinAddr: 0x100006EA4, symSize: 0x34 }
  - { offset: 0x9095, size: 0x8, addend: 0x0, symName: __ZNSt3__112basic_stringIcNS_11char_traitsIcEENS_9allocatorIcEEEC2B8ne180100EOS5_, symObjAddr: 0x3DE8, symBinAddr: 0x100006ED8, symSize: 0xB8 }
  - { offset: 0x90FA, size: 0x8, addend: 0x0, symName: __ZZNSt3__112basic_stringIcNS_11char_traitsIcEENS_9allocatorIcEEEC1B8ne180100EOS5_ENKUlRS5_E_clES7_, symObjAddr: 0x3EA0, symBinAddr: 0x100006F90, symSize: 0x40 }
  - { offset: 0x9131, size: 0x8, addend: 0x0, symName: __ZNKSt3__112basic_stringIcNS_11char_traitsIcEENS_9allocatorIcEEE17__annotate_deleteB8ne180100Ev, symObjAddr: 0x3EE0, symBinAddr: 0x100006FD0, symSize: 0x10 }
  - { offset: 0x915F, size: 0x8, addend: 0x0, symName: __ZNSt3__14pairIN16BinarySearchTreeINS0_INS_12basic_stringIcNS_11char_traitsIcEENS_9allocatorIcEEEEiEEN3MapIS7_iNS_4lessIS7_EEE8PairCompEE8IteratorEbEC1B8ne180100ISF_bLi0EEEOT_OT0_, symObjAddr: 0x3EF0, symBinAddr: 0x100006FE0, symSize: 0x3C }
  - { offset: 0x91BB, size: 0x8, addend: 0x0, symName: __ZN16BinarySearchTreeINSt3__14pairINS0_12basic_stringIcNS0_11char_traitsIcEENS0_9allocatorIcEEEEiEEN3MapIS7_iNS0_4lessIS7_EEE8PairCompEE6insertERKS8_, symObjAddr: 0x3F2C, symBinAddr: 0x10000701C, symSize: 0xBC }
  - { offset: 0x91EE, size: 0x8, addend: 0x0, symName: __ZNSt3__14pairIN16BinarySearchTreeINS0_INS_12basic_stringIcNS_11char_traitsIcEENS_9allocatorIcEEEEiEEN3MapIS7_iNS_4lessIS7_EEE8PairCompEE8IteratorEbEC2B8ne180100ISF_bLi0EEEOT_OT0_, symObjAddr: 0x3FE8, symBinAddr: 0x1000070D8, symSize: 0x40 }
  - { offset: 0x924A, size: 0x8, addend: 0x0, symName: __ZN16BinarySearchTreeINSt3__14pairINS0_12basic_stringIcNS0_11char_traitsIcEENS0_9allocatorIcEEEEiEEN3MapIS7_iNS0_4lessIS7_EEE8PairCompEE11insert_implEPNSE_4NodeERKS8_SD_, symObjAddr: 0x4028, symBinAddr: 0x100007118, symSize: 0x128 }
  - { offset: 0x92A5, size: 0x8, addend: 0x0, symName: __ZNSt3__14pairIN16BinarySearchTreeINS0_I4DuckNS_12basic_stringIcNS_11char_traitsIcEENS_9allocatorIcEEEEEEN3MapIS2_S8_14DuckWealthLessE8PairCompEE8IteratorEbEC1B8ne180100ISF_bLi0EEEOT_OT0_, symObjAddr: 0x4150, symBinAddr: 0x100007240, symSize: 0x3C }
  - { offset: 0x9301, size: 0x8, addend: 0x0, symName: __ZN16BinarySearchTreeINSt3__14pairI4DuckNS0_12basic_stringIcNS0_11char_traitsIcEENS0_9allocatorIcEEEEEEN3MapIS2_S8_14DuckWealthLessE8PairCompEE6insertERKS9_, symObjAddr: 0x418C, symBinAddr: 0x10000727C, symSize: 0xBC }
  - { offset: 0x9334, size: 0x8, addend: 0x0, symName: __ZNSt3__14pairIN16BinarySearchTreeINS0_I4DuckNS_12basic_stringIcNS_11char_traitsIcEENS_9allocatorIcEEEEEEN3MapIS2_S8_14DuckWealthLessE8PairCompEE8IteratorEbEC2B8ne180100ISF_bLi0EEEOT_OT0_, symObjAddr: 0x4248, symBinAddr: 0x100007338, symSize: 0x40 }
  - { offset: 0x9390, size: 0x8, addend: 0x0, symName: __ZN16BinarySearchTreeINSt3__14pairI4DuckNS0_12basic_stringIcNS0_11char_traitsIcEENS0_9allocatorIcEEEEEEN3MapIS2_S8_14DuckWealthLessE8PairCompEE11insert_implEPNSE_4NodeERKS9_SD_, symObjAddr: 0x4288, symBinAddr: 0x100007378, symSize: 0x128 }
  - { offset: 0x93E6, size: 0x8, addend: 0x0, symName: __ZNK16BinarySearchTreeINSt3__14pairINS0_12basic_stringIcNS0_11char_traitsIcEENS0_9allocatorIcEEEEiEEN3MapIS7_iNS0_4lessIS7_EEE8PairCompEE8IteratorptEv, symObjAddr: 0x43B0, symBinAddr: 0x1000074A0, symSize: 0x18 }
  - { offset: 0x940A, size: 0x8, addend: 0x0, symName: __ZNK16BinarySearchTreeINSt3__14pairI4DuckNS0_12basic_stringIcNS0_11char_traitsIcEENS0_9allocatorIcEEEEEEN3MapIS2_S8_14DuckWealthLessE8PairCompEE8IteratorptEv, symObjAddr: 0x43C8, symBinAddr: 0x1000074B8, symSize: 0x18 }
  - { offset: 0x942E, size: 0x8, addend: 0x0, symName: __ZN16BinarySearchTreeINSt3__14pairINS0_12basic_stringIcNS0_11char_traitsIcEENS0_9allocatorIcEEEEiEEN3MapIS7_iNS0_4lessIS7_EEE8PairCompEE21min_greater_than_implEPNSE_4NodeERKS8_SD_, symObjAddr: 0x43E0, symBinAddr: 0x1000074D0, symSize: 0xEC }
  - { offset: 0x946F, size: 0x8, addend: 0x0, symName: __ZN16BinarySearchTreeINSt3__14pairI4DuckNS0_12basic_stringIcNS0_11char_traitsIcEENS0_9allocatorIcEEEEEEN3MapIS2_S8_14DuckWealthLessE8PairCompEE21min_greater_than_implEPNSE_4NodeERKS9_SD_, symObjAddr: 0x44CC, symBinAddr: 0x1000075BC, symSize: 0xEC }
...
