---
triple:          'arm64-apple-darwin'
binary-path:     euchre.exe
relocations:
  - { offsetInCU: 0x52, offset: 0x52, size: 0x8, addend: 0x0, symName: __ZL10RANK_NAMES, symObjAddr: 0x26A8, symBinAddr: 0x1000102E0, symSize: 0x0 }
  - { offsetInCU: 0x81, offset: 0x81, size: 0x8, addend: 0x0, symName: __ZL10SUIT_NAMES, symObjAddr: 0x2710, symBinAddr: 0x100010348, symSize: 0x0 }
  - { offsetInCU: 0x307F, offset: 0x307F, size: 0x8, addend: 0x0, symName: __ZNSt3__124__put_character_sequenceB8ue170006IcNS_11char_traitsIcEEEERNS_13basic_ostreamIT_T0_EES7_PKS4_m, symObjAddr: 0x1544, symBinAddr: 0x10000242C, symSize: 0x1EC }
  - { offsetInCU: 0x4EEB, offset: 0x4EEB, size: 0x8, addend: 0x0, symName: __ZNSt3__1eqB8ue170006IcNS_11char_traitsIcEENS_9allocatorIcEEEEbRKNS_12basic_stringIT_T0_T1_EEPKS6_, symObjAddr: 0x90, symBinAddr: 0x100000F78, symSize: 0xAC }
  - { offsetInCU: 0x4F52, offset: 0x4F52, size: 0x8, addend: 0x0, symName: __ZNSt3__1lsB8ue170006INS_11char_traitsIcEEEERNS_13basic_ostreamIcT_EES6_PKc, symObjAddr: 0x17C, symBinAddr: 0x100001064, symSize: 0x48 }
  - { offsetInCU: 0x4F98, offset: 0x4F98, size: 0x8, addend: 0x0, symName: __ZNSt3__1rsB8ue170006IcNS_11char_traitsIcEENS_9allocatorIcEEEERNS_13basic_istreamIT_T0_EES9_RNS_12basic_stringIS6_S7_T1_EE, symObjAddr: 0x2AC, symBinAddr: 0x100001194, symSize: 0x30C }
  - { offsetInCU: 0x5065, offset: 0x5065, size: 0x8, addend: 0x0, symName: __ZNSt3__118__constexpr_strlenB8ue170006EPKc, symObjAddr: 0x1454, symBinAddr: 0x10000233C, symSize: 0x24 }
  - { offsetInCU: 0x5091, offset: 0x5091, size: 0x8, addend: 0x0, symName: __ZNSt3__116__pad_and_outputB8ue170006IcNS_11char_traitsIcEEEENS_19ostreambuf_iteratorIT_T0_EES6_PKS4_S8_S8_RNS_8ios_baseES4_, symObjAddr: 0x174C, symBinAddr: 0x100002634, symSize: 0x240 }
  - { offsetInCU: 0x5160, offset: 0x5160, size: 0x8, addend: 0x0, symName: __ZNSt3__112__to_addressB8ue170006IcEEPT_S2_, symObjAddr: 0x1CB4, symBinAddr: 0x100002B9C, symSize: 0x14 }
  - { offsetInCU: 0x51C8, offset: 0x51C8, size: 0x8, addend: 0x0, symName: __ZNSt3__19use_facetB8ue170006INS_5ctypeIcEEEERKT_RKNS_6localeE, symObjAddr: 0x1EFC, symBinAddr: 0x100002DE4, symSize: 0x2C }
  - { offsetInCU: 0x85FF, offset: 0x85FF, size: 0x8, addend: 0x0, symName: __Z14string_to_rankRKNSt3__112basic_stringIcNS_11char_traitsIcEENS_9allocatorIcEEEE, symObjAddr: 0x0, symBinAddr: 0x100000EE8, symSize: 0x90 }
  - { offsetInCU: 0x8647, offset: 0x8647, size: 0x8, addend: 0x0, symName: __ZlsRNSt3__113basic_ostreamIcNS_11char_traitsIcEEEE4Rank, symObjAddr: 0x13C, symBinAddr: 0x100001024, symSize: 0x40 }
  - { offsetInCU: 0x8681, offset: 0x8681, size: 0x8, addend: 0x0, symName: __ZrsRNSt3__113basic_istreamIcNS_11char_traitsIcEEEER4Rank, symObjAddr: 0x1C4, symBinAddr: 0x1000010AC, symSize: 0xBC }
  - { offsetInCU: 0x86C9, offset: 0x86C9, size: 0x8, addend: 0x0, symName: __ZNSt3__112basic_stringIcNS_11char_traitsIcEENS_9allocatorIcEEEC1B8ue170006Ev, symObjAddr: 0x280, symBinAddr: 0x100001168, symSize: 0x2C }
  - { offsetInCU: 0x86F1, offset: 0x86F1, size: 0x8, addend: 0x0, symName: __ZNKSt3__19basic_iosIcNS_11char_traitsIcEEEcvbB8ue170006Ev, symObjAddr: 0x5B8, symBinAddr: 0x1000014A0, symSize: 0x2C }
  - { offsetInCU: 0x8715, offset: 0x8715, size: 0x8, addend: 0x0, symName: __Z14string_to_suitRKNSt3__112basic_stringIcNS_11char_traitsIcEENS_9allocatorIcEEEE, symObjAddr: 0x5E4, symBinAddr: 0x1000014CC, symSize: 0x90 }
  - { offsetInCU: 0x875D, offset: 0x875D, size: 0x8, addend: 0x0, symName: __ZlsRNSt3__113basic_ostreamIcNS_11char_traitsIcEEEE4Suit, symObjAddr: 0x674, symBinAddr: 0x10000155C, symSize: 0x40 }
  - { offsetInCU: 0x8797, offset: 0x8797, size: 0x8, addend: 0x0, symName: __ZrsRNSt3__113basic_istreamIcNS_11char_traitsIcEEEER4Suit, symObjAddr: 0x6B4, symBinAddr: 0x10000159C, symSize: 0xBC }
  - { offsetInCU: 0x88E4, offset: 0x88E4, size: 0x8, addend: 0x0, symName: __ZN4CardC2Ev, symObjAddr: 0x770, symBinAddr: 0x100001658, symSize: 0x1C }
  - { offsetInCU: 0x890F, offset: 0x890F, size: 0x8, addend: 0x0, symName: __ZN4CardC1Ev, symObjAddr: 0x78C, symBinAddr: 0x100001674, symSize: 0x2C }
  - { offsetInCU: 0x8938, offset: 0x8938, size: 0x8, addend: 0x0, symName: __ZN4CardC2E4Rank4Suit, symObjAddr: 0x7B8, symBinAddr: 0x1000016A0, symSize: 0x2C }
  - { offsetInCU: 0x897F, offset: 0x897F, size: 0x8, addend: 0x0, symName: __ZN4CardC1E4Rank4Suit, symObjAddr: 0x7E4, symBinAddr: 0x1000016CC, symSize: 0x3C }
  - { offsetInCU: 0x89C5, offset: 0x89C5, size: 0x8, addend: 0x0, symName: __ZNK4Card8get_rankEv, symObjAddr: 0x820, symBinAddr: 0x100001708, symSize: 0x18 }
  - { offsetInCU: 0x89EC, offset: 0x89EC, size: 0x8, addend: 0x0, symName: __ZNK4Card8get_suitEv, symObjAddr: 0x838, symBinAddr: 0x100001720, symSize: 0x18 }
  - { offsetInCU: 0x8A13, offset: 0x8A13, size: 0x8, addend: 0x0, symName: __ZNK4Card8get_suitE4Suit, symObjAddr: 0x850, symBinAddr: 0x100001738, symSize: 0x8C }
  - { offsetInCU: 0x8A48, offset: 0x8A48, size: 0x8, addend: 0x0, symName: __ZNK4Card14is_face_or_aceEv, symObjAddr: 0x8DC, symBinAddr: 0x1000017C4, symSize: 0xA4 }
  - { offsetInCU: 0x8A6F, offset: 0x8A6F, size: 0x8, addend: 0x0, symName: __ZNK4Card14is_right_bowerE4Suit, symObjAddr: 0x980, symBinAddr: 0x100001868, symSize: 0x7C }
  - { offsetInCU: 0x8AA4, offset: 0x8AA4, size: 0x8, addend: 0x0, symName: __ZNK4Card13is_left_bowerE4Suit, symObjAddr: 0x9FC, symBinAddr: 0x1000018E4, symSize: 0x90 }
  - { offsetInCU: 0x8AD9, offset: 0x8AD9, size: 0x8, addend: 0x0, symName: __ZNK4Card8is_trumpE4Suit, symObjAddr: 0xA8C, symBinAddr: 0x100001974, symSize: 0x98 }
  - { offsetInCU: 0x8B0D, offset: 0x8B0D, size: 0x8, addend: 0x0, symName: __ZlsRNSt3__113basic_ostreamIcNS_11char_traitsIcEEEERK4Card, symObjAddr: 0xB24, symBinAddr: 0x100001A0C, symSize: 0x64 }
  - { offsetInCU: 0x8B47, offset: 0x8B47, size: 0x8, addend: 0x0, symName: __ZrsRNSt3__113basic_istreamIcNS_11char_traitsIcEEEER4Card, symObjAddr: 0xB88, symBinAddr: 0x100001A70, symSize: 0x110 }
  - { offsetInCU: 0x8BC8, offset: 0x8BC8, size: 0x8, addend: 0x0, symName: __ZltRK4CardS1_, symObjAddr: 0xC98, symBinAddr: 0x100001B80, symSize: 0xBC }
  - { offsetInCU: 0x8C02, offset: 0x8C02, size: 0x8, addend: 0x0, symName: __ZleRK4CardS1_, symObjAddr: 0xD54, symBinAddr: 0x100001C3C, symSize: 0xBC }
  - { offsetInCU: 0x8C3C, offset: 0x8C3C, size: 0x8, addend: 0x0, symName: __ZgtRK4CardS1_, symObjAddr: 0xE10, symBinAddr: 0x100001CF8, symSize: 0xBC }
  - { offsetInCU: 0x8C76, offset: 0x8C76, size: 0x8, addend: 0x0, symName: __ZgeRK4CardS1_, symObjAddr: 0xECC, symBinAddr: 0x100001DB4, symSize: 0xBC }
  - { offsetInCU: 0x8CB0, offset: 0x8CB0, size: 0x8, addend: 0x0, symName: __ZeqRK4CardS1_, symObjAddr: 0xF88, symBinAddr: 0x100001E70, symSize: 0xA8 }
  - { offsetInCU: 0x8CEA, offset: 0x8CEA, size: 0x8, addend: 0x0, symName: __ZneRK4CardS1_, symObjAddr: 0x1030, symBinAddr: 0x100001F18, symSize: 0x34 }
  - { offsetInCU: 0x8D24, offset: 0x8D24, size: 0x8, addend: 0x0, symName: __Z9Suit_next4Suit, symObjAddr: 0x1064, symBinAddr: 0x100001F4C, symSize: 0x28 }
  - { offsetInCU: 0x8D50, offset: 0x8D50, size: 0x8, addend: 0x0, symName: __Z9Card_lessRK4CardS1_4Suit, symObjAddr: 0x108C, symBinAddr: 0x100001F74, symSize: 0x60 }
  - { offsetInCU: 0x8D98, offset: 0x8D98, size: 0x8, addend: 0x0, symName: __Z9Card_lessRK4CardS1_S1_4Suit, symObjAddr: 0x10EC, symBinAddr: 0x100001FD4, symSize: 0x2D4 }
  - { offsetInCU: 0x8DF4, offset: 0x8DF4, size: 0x8, addend: 0x0, symName: __ZNSt3__111char_traitsIcE6lengthB8ue170006EPKc, symObjAddr: 0x13C0, symBinAddr: 0x1000022A8, symSize: 0x34 }
  - { offsetInCU: 0x8E16, offset: 0x8E16, size: 0x8, addend: 0x0, symName: __ZNKSt3__112basic_stringIcNS_11char_traitsIcEENS_9allocatorIcEEE4sizeB8ue170006Ev, symObjAddr: 0x13F4, symBinAddr: 0x1000022DC, symSize: 0x54 }
  - { offsetInCU: 0x8E3A, offset: 0x8E3A, size: 0x8, addend: 0x0, symName: __ZNKSt3__112basic_stringIcNS_11char_traitsIcEENS_9allocatorIcEEE9__is_longB8ue170006Ev, symObjAddr: 0x1478, symBinAddr: 0x100002360, symSize: 0x38 }
  - { offsetInCU: 0x8E5E, offset: 0x8E5E, size: 0x8, addend: 0x0, symName: __ZNKSt3__112basic_stringIcNS_11char_traitsIcEENS_9allocatorIcEEE15__get_long_sizeB8ue170006Ev, symObjAddr: 0x14B0, symBinAddr: 0x100002398, symSize: 0x28 }
  - { offsetInCU: 0x8E82, offset: 0x8E82, size: 0x8, addend: 0x0, symName: __ZNKSt3__112basic_stringIcNS_11char_traitsIcEENS_9allocatorIcEEE16__get_short_sizeB8ue170006Ev, symObjAddr: 0x14D8, symBinAddr: 0x1000023C0, symSize: 0x34 }
  - { offsetInCU: 0x8EA6, offset: 0x8EA6, size: 0x8, addend: 0x0, symName: __ZNKSt3__117__compressed_pairINS_12basic_stringIcNS_11char_traitsIcEENS_9allocatorIcEEE5__repES5_E5firstB8ue170006Ev, symObjAddr: 0x150C, symBinAddr: 0x1000023F4, symSize: 0x24 }
  - { offsetInCU: 0x8ECB, offset: 0x8ECB, size: 0x8, addend: 0x0, symName: __ZNKSt3__122__compressed_pair_elemINS_12basic_stringIcNS_11char_traitsIcEENS_9allocatorIcEEE5__repELi0ELb0EE5__getB8ue170006Ev, symObjAddr: 0x1530, symBinAddr: 0x100002418, symSize: 0x14 }
  - { offsetInCU: 0x8F0E, offset: 0x8F0E, size: 0x8, addend: 0x0, symName: __ZNKSt3__113basic_ostreamIcNS_11char_traitsIcEEE6sentrycvbB8ue170006Ev, symObjAddr: 0x1730, symBinAddr: 0x100002618, symSize: 0x1C }
  - { offsetInCU: 0x8F32, offset: 0x8F32, size: 0x8, addend: 0x0, symName: __ZNSt3__119ostreambuf_iteratorIcNS_11char_traitsIcEEEC1B8ue170006ERNS_13basic_ostreamIcS2_EE, symObjAddr: 0x198C, symBinAddr: 0x100002874, symSize: 0x34 }
  - { offsetInCU: 0x8F69, offset: 0x8F69, size: 0x8, addend: 0x0, symName: __ZNKSt3__18ios_base5flagsB8ue170006Ev, symObjAddr: 0x19C0, symBinAddr: 0x1000028A8, symSize: 0x18 }
  - { offsetInCU: 0x8F90, offset: 0x8F90, size: 0x8, addend: 0x0, symName: __ZNKSt3__19basic_iosIcNS_11char_traitsIcEEE4fillB8ue170006Ev, symObjAddr: 0x19D8, symBinAddr: 0x1000028C0, symSize: 0x64 }
  - { offsetInCU: 0x8FB7, offset: 0x8FB7, size: 0x8, addend: 0x0, symName: __ZNKSt3__119ostreambuf_iteratorIcNS_11char_traitsIcEEE6failedB8ue170006Ev, symObjAddr: 0x1A3C, symBinAddr: 0x100002924, symSize: 0x24 }
  - { offsetInCU: 0x8FDB, offset: 0x8FDB, size: 0x8, addend: 0x0, symName: __ZNSt3__19basic_iosIcNS_11char_traitsIcEEE8setstateB8ue170006Ej, symObjAddr: 0x1A60, symBinAddr: 0x100002948, symSize: 0x2C }
  - { offsetInCU: 0x900F, offset: 0x900F, size: 0x8, addend: 0x0, symName: __ZNKSt3__18ios_base5widthB8ue170006Ev, symObjAddr: 0x1A8C, symBinAddr: 0x100002974, symSize: 0x18 }
  - { offsetInCU: 0x9035, offset: 0x9035, size: 0x8, addend: 0x0, symName: __ZNSt3__115basic_streambufIcNS_11char_traitsIcEEE5sputnB8ue170006EPKcl, symObjAddr: 0x1AA4, symBinAddr: 0x10000298C, symSize: 0x3C }
  - { offsetInCU: 0x9075, offset: 0x9075, size: 0x8, addend: 0x0, symName: __ZNSt3__112basic_stringIcNS_11char_traitsIcEENS_9allocatorIcEEEC1B8ue170006Emc, symObjAddr: 0x1AE0, symBinAddr: 0x1000029C8, symSize: 0x3C }
  - { offsetInCU: 0x90BB, offset: 0x90BB, size: 0x8, addend: 0x0, symName: __ZNSt3__112basic_stringIcNS_11char_traitsIcEENS_9allocatorIcEEE4dataB8ue170006Ev, symObjAddr: 0x1B1C, symBinAddr: 0x100002A04, symSize: 0x28 }
  - { offsetInCU: 0x90E0, offset: 0x90E0, size: 0x8, addend: 0x0, symName: __ZNSt3__18ios_base5widthB8ue170006El, symObjAddr: 0x1B44, symBinAddr: 0x100002A2C, symSize: 0x2C }
  - { offsetInCU: 0x9124, offset: 0x9124, size: 0x8, addend: 0x0, symName: __ZNSt3__112basic_stringIcNS_11char_traitsIcEENS_9allocatorIcEEEC2B8ue170006Emc, symObjAddr: 0x1B70, symBinAddr: 0x100002A58, symSize: 0x4C }
  - { offsetInCU: 0x916F, offset: 0x916F, size: 0x8, addend: 0x0, symName: __ZNSt3__117__compressed_pairINS_12basic_stringIcNS_11char_traitsIcEENS_9allocatorIcEEE5__repES5_EC1B8ue170006INS_18__default_init_tagESA_EEOT_OT0_, symObjAddr: 0x1BBC, symBinAddr: 0x100002AA4, symSize: 0x3C }
  - { offsetInCU: 0x91C5, offset: 0x91C5, size: 0x8, addend: 0x0, symName: __ZNSt3__117__compressed_pairINS_12basic_stringIcNS_11char_traitsIcEENS_9allocatorIcEEE5__repES5_EC2B8ue170006INS_18__default_init_tagESA_EEOT_OT0_, symObjAddr: 0x1BF8, symBinAddr: 0x100002AE0, symSize: 0x3C }
  - { offsetInCU: 0x921C, offset: 0x921C, size: 0x8, addend: 0x0, symName: __ZNSt3__122__compressed_pair_elemINS_12basic_stringIcNS_11char_traitsIcEENS_9allocatorIcEEE5__repELi0ELb0EEC2B8ue170006ENS_18__default_init_tagE, symObjAddr: 0x1C34, symBinAddr: 0x100002B1C, symSize: 0x14 }
  - { offsetInCU: 0x924F, offset: 0x924F, size: 0x8, addend: 0x0, symName: __ZNSt3__122__compressed_pair_elemINS_9allocatorIcEELi1ELb1EEC2B8ue170006ENS_18__default_init_tagE, symObjAddr: 0x1C48, symBinAddr: 0x100002B30, symSize: 0x2C }
  - { offsetInCU: 0x9282, offset: 0x9282, size: 0x8, addend: 0x0, symName: __ZNSt3__19allocatorIcEC2B8ue170006Ev, symObjAddr: 0x1C74, symBinAddr: 0x100002B5C, symSize: 0x2C }
  - { offsetInCU: 0x92AB, offset: 0x92AB, size: 0x8, addend: 0x0, symName: __ZNSt3__116__non_trivial_ifILb1ENS_9allocatorIcEEEC2B8ue170006Ev, symObjAddr: 0x1CA0, symBinAddr: 0x100002B88, symSize: 0x14 }
  - { offsetInCU: 0x92D3, offset: 0x92D3, size: 0x8, addend: 0x0, symName: __ZNSt3__112basic_stringIcNS_11char_traitsIcEENS_9allocatorIcEEE13__get_pointerB8ue170006Ev, symObjAddr: 0x1CC8, symBinAddr: 0x100002BB0, symSize: 0x54 }
  - { offsetInCU: 0x92F7, offset: 0x92F7, size: 0x8, addend: 0x0, symName: __ZNSt3__112basic_stringIcNS_11char_traitsIcEENS_9allocatorIcEEE18__get_long_pointerB8ue170006Ev, symObjAddr: 0x1D1C, symBinAddr: 0x100002C04, symSize: 0x28 }
  - { offsetInCU: 0x931B, offset: 0x931B, size: 0x8, addend: 0x0, symName: __ZNSt3__112basic_stringIcNS_11char_traitsIcEENS_9allocatorIcEEE19__get_short_pointerB8ue170006Ev, symObjAddr: 0x1D44, symBinAddr: 0x100002C2C, symSize: 0x28 }
  - { offsetInCU: 0x933F, offset: 0x933F, size: 0x8, addend: 0x0, symName: __ZNSt3__117__compressed_pairINS_12basic_stringIcNS_11char_traitsIcEENS_9allocatorIcEEE5__repES5_E5firstB8ue170006Ev, symObjAddr: 0x1D6C, symBinAddr: 0x100002C54, symSize: 0x24 }
  - { offsetInCU: 0x9364, offset: 0x9364, size: 0x8, addend: 0x0, symName: __ZNSt3__122__compressed_pair_elemINS_12basic_stringIcNS_11char_traitsIcEENS_9allocatorIcEEE5__repELi0ELb0EE5__getB8ue170006Ev, symObjAddr: 0x1D90, symBinAddr: 0x100002C78, symSize: 0x14 }
  - { offsetInCU: 0x9389, offset: 0x9389, size: 0x8, addend: 0x0, symName: __ZNSt3__114pointer_traitsIPcE10pointer_toB8ue170006ERc, symObjAddr: 0x1DA4, symBinAddr: 0x100002C8C, symSize: 0x14 }
  - { offsetInCU: 0x93AB, offset: 0x93AB, size: 0x8, addend: 0x0, symName: __ZNSt3__119ostreambuf_iteratorIcNS_11char_traitsIcEEEC2B8ue170006ERNS_13basic_ostreamIcS2_EE, symObjAddr: 0x1DB8, symBinAddr: 0x100002CA0, symSize: 0x54 }
  - { offsetInCU: 0x93E2, offset: 0x93E2, size: 0x8, addend: 0x0, symName: __ZNKSt3__19basic_iosIcNS_11char_traitsIcEEE5rdbufB8ue170006Ev, symObjAddr: 0x1E0C, symBinAddr: 0x100002CF4, symSize: 0x24 }
  - { offsetInCU: 0x9409, offset: 0x9409, size: 0x8, addend: 0x0, symName: __ZNKSt3__18ios_base5rdbufB8ue170006Ev, symObjAddr: 0x1E30, symBinAddr: 0x100002D18, symSize: 0x18 }
  - { offsetInCU: 0x942E, offset: 0x942E, size: 0x8, addend: 0x0, symName: __ZNSt3__111char_traitsIcE11eq_int_typeB8ue170006Eii, symObjAddr: 0x1E48, symBinAddr: 0x100002D30, symSize: 0x28 }
  - { offsetInCU: 0x9461, offset: 0x9461, size: 0x8, addend: 0x0, symName: __ZNSt3__111char_traitsIcE3eofB8ue170006Ev, symObjAddr: 0x1E70, symBinAddr: 0x100002D58, symSize: 0x8 }
  - { offsetInCU: 0x9475, offset: 0x9475, size: 0x8, addend: 0x0, symName: __ZNKSt3__19basic_iosIcNS_11char_traitsIcEEE5widenB8ue170006Ec, symObjAddr: 0x1E78, symBinAddr: 0x100002D60, symSize: 0x84 }
  - { offsetInCU: 0x94D7, offset: 0x94D7, size: 0x8, addend: 0x0, symName: __ZNKSt3__15ctypeIcE5widenB8ue170006Ec, symObjAddr: 0x1F28, symBinAddr: 0x100002E10, symSize: 0x38 }
  - { offsetInCU: 0x950B, offset: 0x950B, size: 0x8, addend: 0x0, symName: __ZNSt3__18ios_base8setstateB8ue170006Ej, symObjAddr: 0x1F60, symBinAddr: 0x100002E48, symSize: 0x34 }
  - { offsetInCU: 0x9540, offset: 0x9540, size: 0x8, addend: 0x0, symName: __ZNSt3__112basic_stringIcNS_11char_traitsIcEENS_9allocatorIcEEEC2B8ue170006Ev, symObjAddr: 0x1F94, symBinAddr: 0x100002E7C, symSize: 0x48 }
  - { offsetInCU: 0x9568, offset: 0x9568, size: 0x8, addend: 0x0, symName: __ZNSt3__112basic_stringIcNS_11char_traitsIcEENS_9allocatorIcEEE14__default_initB8ue170006Ev, symObjAddr: 0x1FDC, symBinAddr: 0x100002EC4, symSize: 0x40 }
  - { offsetInCU: 0x961F, offset: 0x961F, size: 0x8, addend: 0x0, symName: __ZNKSt3__113basic_istreamIcNS_11char_traitsIcEEE6sentrycvbB8ue170006Ev, symObjAddr: 0x201C, symBinAddr: 0x100002F04, symSize: 0x1C }
  - { offsetInCU: 0x9644, offset: 0x9644, size: 0x8, addend: 0x0, symName: __ZNSt3__112basic_stringIcNS_11char_traitsIcEENS_9allocatorIcEEE5clearB8ue170006Ev, symObjAddr: 0x2038, symBinAddr: 0x100002F20, symSize: 0x78 }
  - { offsetInCU: 0x966A, offset: 0x966A, size: 0x8, addend: 0x0, symName: __ZNKSt3__112basic_stringIcNS_11char_traitsIcEENS_9allocatorIcEEE8max_sizeB8ue170006Ev, symObjAddr: 0x20B0, symBinAddr: 0x100002F98, symSize: 0xAC }
  - { offsetInCU: 0x96BB, offset: 0x96BB, size: 0x8, addend: 0x0, symName: __ZNSt3__114numeric_limitsIlE3maxB8ue170006Ev, symObjAddr: 0x215C, symBinAddr: 0x100003044, symSize: 0x14 }
  - { offsetInCU: 0x96CE, offset: 0x96CE, size: 0x8, addend: 0x0, symName: __ZNSt3__115basic_streambufIcNS_11char_traitsIcEEE5sgetcB8ue170006Ev, symObjAddr: 0x2170, symBinAddr: 0x100003058, symSize: 0x70 }
  - { offsetInCU: 0x96F3, offset: 0x96F3, size: 0x8, addend: 0x0, symName: __ZNSt3__111char_traitsIcE12to_char_typeB8ue170006Ei, symObjAddr: 0x21E0, symBinAddr: 0x1000030C8, symSize: 0x18 }
  - { offsetInCU: 0x9715, offset: 0x9715, size: 0x8, addend: 0x0, symName: __ZNKSt3__15ctypeIcE2isB8ue170006Ejc, symObjAddr: 0x21F8, symBinAddr: 0x1000030E0, symSize: 0x7C }
  - { offsetInCU: 0x9757, offset: 0x9757, size: 0x8, addend: 0x0, symName: __ZNSt3__115basic_streambufIcNS_11char_traitsIcEEE6sbumpcB8ue170006Ev, symObjAddr: 0x2274, symBinAddr: 0x10000315C, symSize: 0x78 }
  - { offsetInCU: 0x977C, offset: 0x977C, size: 0x8, addend: 0x0, symName: __ZNSt3__18ios_base18__setstate_nothrowB8ue170006Ej, symObjAddr: 0x22EC, symBinAddr: 0x1000031D4, symSize: 0x64 }
  - { offsetInCU: 0x97AF, offset: 0x97AF, size: 0x8, addend: 0x0, symName: __ZNKSt3__19basic_iosIcNS_11char_traitsIcEEE10exceptionsB8ue170006Ev, symObjAddr: 0x2350, symBinAddr: 0x100003238, symSize: 0x24 }
  - { offsetInCU: 0x97D4, offset: 0x97D4, size: 0x8, addend: 0x0, symName: __ZNSt3__111char_traitsIcE6assignB8ue170006ERcRKc, symObjAddr: 0x2374, symBinAddr: 0x10000325C, symSize: 0x24 }
  - { offsetInCU: 0x9804, offset: 0x9804, size: 0x8, addend: 0x0, symName: __ZNSt3__112basic_stringIcNS_11char_traitsIcEENS_9allocatorIcEEE15__set_long_sizeB8ue170006Em, symObjAddr: 0x2398, symBinAddr: 0x100003280, symSize: 0x38 }
  - { offsetInCU: 0x9837, offset: 0x9837, size: 0x8, addend: 0x0, symName: __ZNSt3__112basic_stringIcNS_11char_traitsIcEENS_9allocatorIcEEE16__set_short_sizeB8ue170006Em, symObjAddr: 0x23D0, symBinAddr: 0x1000032B8, symSize: 0x78 }
  - { offsetInCU: 0x9875, offset: 0x9875, size: 0x8, addend: 0x0, symName: __ZNSt3__116allocator_traitsINS_9allocatorIcEEE8max_sizeB8ue170006IS2_vEEmRKS2_, symObjAddr: 0x2448, symBinAddr: 0x100003330, symSize: 0x24 }
  - { offsetInCU: 0x98A2, offset: 0x98A2, size: 0x8, addend: 0x0, symName: __ZNKSt3__112basic_stringIcNS_11char_traitsIcEENS_9allocatorIcEEE7__allocB8ue170006Ev, symObjAddr: 0x246C, symBinAddr: 0x100003354, symSize: 0x24 }
  - { offsetInCU: 0x98C7, offset: 0x98C7, size: 0x8, addend: 0x0, symName: __ZNSt3__114numeric_limitsImE3maxB8ue170006Ev, symObjAddr: 0x2490, symBinAddr: 0x100003378, symSize: 0x14 }
  - { offsetInCU: 0x98DB, offset: 0x98DB, size: 0x8, addend: 0x0, symName: __ZNKSt3__19allocatorIcE8max_sizeB8ue170006Ev, symObjAddr: 0x24A4, symBinAddr: 0x10000338C, symSize: 0x14 }
  - { offsetInCU: 0x98FF, offset: 0x98FF, size: 0x8, addend: 0x0, symName: __ZNKSt3__117__compressed_pairINS_12basic_stringIcNS_11char_traitsIcEENS_9allocatorIcEEE5__repES5_E6secondB8ue170006Ev, symObjAddr: 0x24B8, symBinAddr: 0x1000033A0, symSize: 0x24 }
  - { offsetInCU: 0x9924, offset: 0x9924, size: 0x8, addend: 0x0, symName: __ZNKSt3__122__compressed_pair_elemINS_9allocatorIcEELi1ELb1EE5__getB8ue170006Ev, symObjAddr: 0x24DC, symBinAddr: 0x1000033C4, symSize: 0x14 }
  - { offsetInCU: 0x9949, offset: 0x9949, size: 0x8, addend: 0x0, symName: __ZNSt3__123__libcpp_numeric_limitsImLb1EE3maxB8ue170006Ev, symObjAddr: 0x24F0, symBinAddr: 0x1000033D8, symSize: 0x8 }
  - { offsetInCU: 0x995D, offset: 0x995D, size: 0x8, addend: 0x0, symName: __ZNSt3__123__libcpp_numeric_limitsIlLb1EE3maxB8ue170006Ev, symObjAddr: 0x24F8, symBinAddr: 0x1000033E0, symSize: 0x8 }
  - { offsetInCU: 0x9971, offset: 0x9971, size: 0x8, addend: 0x0, symName: __ZNSt3__111char_traitsIcE11to_int_typeB8ue170006Ec, symObjAddr: 0x2500, symBinAddr: 0x1000033E8, symSize: 0x14 }
  - { offsetInCU: 0x9994, offset: 0x9994, size: 0x8, addend: 0x0, symName: __Z7isasciii, symObjAddr: 0x2514, symBinAddr: 0x1000033FC, symSize: 0x24 }
  - { offsetInCU: 0x99C1, offset: 0x99C1, size: 0x8, addend: 0x0, symName: __ZNKSt3__18ios_base10exceptionsB8ue170006Ev, symObjAddr: 0x2538, symBinAddr: 0x100003420, symSize: 0x18 }
  - { offsetInCU: 0x99E7, offset: 0x99E7, size: 0x8, addend: 0x0, symName: __ZNKSt3__19basic_iosIcNS_11char_traitsIcEEE4failB8ue170006Ev, symObjAddr: 0x2550, symBinAddr: 0x100003438, symSize: 0x28 }
  - { offsetInCU: 0x9A0C, offset: 0x9A0C, size: 0x8, addend: 0x0, symName: __ZNKSt3__18ios_base4failB8ue170006Ev, symObjAddr: 0x2578, symBinAddr: 0x100003460, symSize: 0x28 }
  - { offsetInCU: 0x442B, offset: 0xDEE4, size: 0x8, addend: 0x0, symName: __ZNSt3__17getlineB8ue170006IcNS_11char_traitsIcEENS_9allocatorIcEEEERNS_13basic_istreamIT_T0_EES9_RNS_12basic_stringIS6_S7_T1_EE, symObjAddr: 0x288, symBinAddr: 0x1000036E4, symSize: 0x5C }
  - { offsetInCU: 0x480D, offset: 0xE2C6, size: 0x8, addend: 0x0, symName: __ZNSt3__17getlineB8ue170006IcNS_11char_traitsIcEENS_9allocatorIcEEEERNS_13basic_istreamIT_T0_EES9_RNS_12basic_stringIS6_S7_T1_EES6_, symObjAddr: 0x984, symBinAddr: 0x100003C1C, symSize: 0x238 }
  - { offsetInCU: 0x6A42, offset: 0x104FB, size: 0x8, addend: 0x0, symName: __ZN4PackC2Ev, symObjAddr: 0x0, symBinAddr: 0x100003488, symSize: 0xD4 }
  - { offsetInCU: 0x6ADC, offset: 0x10595, size: 0x8, addend: 0x0, symName: __ZNSt3__15arrayI4CardLm24EEC1Ev, symObjAddr: 0xD4, symBinAddr: 0x10000355C, symSize: 0x2C }
  - { offsetInCU: 0x6B06, offset: 0x105BF, size: 0x8, addend: 0x0, symName: __ZNSt3__15arrayI4CardLm24EEixB8ue170006Em, symObjAddr: 0x100, symBinAddr: 0x100003588, symSize: 0x20 }
  - { offsetInCU: 0x6B39, offset: 0x105F2, size: 0x8, addend: 0x0, symName: __ZN4PackC1Ev, symObjAddr: 0x120, symBinAddr: 0x1000035A8, symSize: 0x2C }
  - { offsetInCU: 0x6B63, offset: 0x1061C, size: 0x8, addend: 0x0, symName: __ZN4PackC2ERNSt3__113basic_istreamIcNS0_11char_traitsIcEEEE, symObjAddr: 0x14C, symBinAddr: 0x1000035D4, symSize: 0x110 }
  - { offsetInCU: 0x6C22, offset: 0x106DB, size: 0x8, addend: 0x0, symName: __ZNSt3__119basic_istringstreamIcNS_11char_traitsIcEENS_9allocatorIcEEEC1B8ue170006ERKNS_12basic_stringIcS2_S4_EEj, symObjAddr: 0x2E4, symBinAddr: 0x100003740, symSize: 0xFC }
  - { offsetInCU: 0x6C6E, offset: 0x10727, size: 0x8, addend: 0x0, symName: __ZNSt3__119basic_istringstreamIcNS_11char_traitsIcEENS_9allocatorIcEEED1Ev, symObjAddr: 0x3E0, symBinAddr: 0x10000383C, symSize: 0x40 }
  - { offsetInCU: 0x6C99, offset: 0x10752, size: 0x8, addend: 0x0, symName: __ZN4PackC1ERNSt3__113basic_istreamIcNS0_11char_traitsIcEEEE, symObjAddr: 0x420, symBinAddr: 0x10000387C, symSize: 0x34 }
  - { offsetInCU: 0x6CD2, offset: 0x1078B, size: 0x8, addend: 0x0, symName: __ZN4Pack8deal_oneEv, symObjAddr: 0x454, symBinAddr: 0x1000038B0, symSize: 0x48 }
  - { offsetInCU: 0x6D07, offset: 0x107C0, size: 0x8, addend: 0x0, symName: __ZN4Pack5resetEv, symObjAddr: 0x49C, symBinAddr: 0x1000038F8, symSize: 0x18 }
  - { offsetInCU: 0x6D2E, offset: 0x107E7, size: 0x8, addend: 0x0, symName: __ZN4Pack7shuffleEv, symObjAddr: 0x4B4, symBinAddr: 0x100003910, symSize: 0x14C }
  - { offsetInCU: 0x6DC5, offset: 0x1087E, size: 0x8, addend: 0x0, symName: __ZNK4Pack5emptyEv, symObjAddr: 0x600, symBinAddr: 0x100003A5C, symSize: 0x58 }
  - { offsetInCU: 0x6DEB, offset: 0x108A4, size: 0x8, addend: 0x0, symName: __ZNSt3__15arrayI4CardLm24EEC2Ev, symObjAddr: 0x658, symBinAddr: 0x100003AB4, symSize: 0x68 }
  - { offsetInCU: 0x6E16, offset: 0x108CF, size: 0x8, addend: 0x0, symName: __ZNSt3__119basic_istringstreamIcNS_11char_traitsIcEENS_9allocatorIcEEED2Ev, symObjAddr: 0x6C0, symBinAddr: 0x100003B1C, symSize: 0x64 }
  - { offsetInCU: 0x6E4E, offset: 0x10907, size: 0x8, addend: 0x0, symName: __ZTv0_n24_NSt3__119basic_istringstreamIcNS_11char_traitsIcEENS_9allocatorIcEEED1Ev, symObjAddr: 0x724, symBinAddr: 0x100003B80, symSize: 0x28 }
  - { offsetInCU: 0x6E6A, offset: 0x10923, size: 0x8, addend: 0x0, symName: __ZNSt3__115basic_stringbufIcNS_11char_traitsIcEENS_9allocatorIcEEED1Ev, symObjAddr: 0x74C, symBinAddr: 0x100003BA8, symSize: 0x2C }
  - { offsetInCU: 0x6E96, offset: 0x1094F, size: 0x8, addend: 0x0, symName: __ZNSt3__115basic_stringbufIcNS_11char_traitsIcEENS_9allocatorIcEEED2Ev, symObjAddr: 0x778, symBinAddr: 0x100003BD4, symSize: 0x48 }
  - { offsetInCU: 0x6EE5, offset: 0x1099E, size: 0x8, addend: 0x0, symName: __ZNSt3__111char_traitsIcE2eqEcc, symObjAddr: 0xDB8, symBinAddr: 0x100003E54, symSize: 0x28 }
  - { offsetInCU: 0x6F15, offset: 0x109CE, size: 0x8, addend: 0x0, symName: __ZNSt3__19basic_iosIcNS_11char_traitsIcEEEC2B8ue170006Ev, symObjAddr: 0x1324, symBinAddr: 0x100003E7C, symSize: 0x44 }
  - { offsetInCU: 0x6F3D, offset: 0x109F6, size: 0x8, addend: 0x0, symName: __ZNSt3__113basic_istreamIcNS_11char_traitsIcEEEC2B8ue170006EPNS_15basic_streambufIcS2_EE, symObjAddr: 0x1368, symBinAddr: 0x100003EC0, symSize: 0x64 }
  - { offsetInCU: 0x6F7F, offset: 0x10A38, size: 0x8, addend: 0x0, symName: __ZNSt3__115basic_stringbufIcNS_11char_traitsIcEENS_9allocatorIcEEEC1B8ue170006ERKNS_12basic_stringIcS2_S4_EEj, symObjAddr: 0x13CC, symBinAddr: 0x100003F24, symSize: 0x3C }
  - { offsetInCU: 0x6FC6, offset: 0x10A7F, size: 0x8, addend: 0x0, symName: __ZNSt3__18ios_baseC2B8ue170006Ev, symObjAddr: 0x1408, symBinAddr: 0x100003F60, symSize: 0x24 }
  - { offsetInCU: 0x6FEF, offset: 0x10AA8, size: 0x8, addend: 0x0, symName: __ZNSt3__19basic_iosIcNS_11char_traitsIcEEE4initB8ue170006EPNS_15basic_streambufIcS2_EE, symObjAddr: 0x142C, symBinAddr: 0x100003F84, symSize: 0x44 }
  - { offsetInCU: 0x7024, offset: 0x10ADD, size: 0x8, addend: 0x0, symName: __ZNSt3__115basic_stringbufIcNS_11char_traitsIcEENS_9allocatorIcEEEC2B8ue170006ERKNS_12basic_stringIcS2_S4_EEj, symObjAddr: 0x1470, symBinAddr: 0x100003FC8, symSize: 0xB4 }
  - { offsetInCU: 0x706B, offset: 0x10B24, size: 0x8, addend: 0x0, symName: __ZNKSt3__112basic_stringIcNS_11char_traitsIcEENS_9allocatorIcEEE13get_allocatorB8ue170006Ev, symObjAddr: 0x1524, symBinAddr: 0x10000407C, symSize: 0x24 }
  - { offsetInCU: 0x708E, offset: 0x10B47, size: 0x8, addend: 0x0, symName: __ZNSt3__112basic_stringIcNS_11char_traitsIcEENS_9allocatorIcEEEC1B8ue170006ERKS4_, symObjAddr: 0x1548, symBinAddr: 0x1000040A0, symSize: 0x34 }
  - { offsetInCU: 0x70C5, offset: 0x10B7E, size: 0x8, addend: 0x0, symName: __ZNSt3__112basic_stringIcNS_11char_traitsIcEENS_9allocatorIcEEEC2B8ue170006ERKS4_, symObjAddr: 0x157C, symBinAddr: 0x1000040D4, symSize: 0x48 }
  - { offsetInCU: 0x70FC, offset: 0x10BB5, size: 0x8, addend: 0x0, symName: __ZNSt3__117__compressed_pairINS_12basic_stringIcNS_11char_traitsIcEENS_9allocatorIcEEE5__repES5_EC1B8ue170006INS_18__default_init_tagERKS5_EEOT_OT0_, symObjAddr: 0x15C4, symBinAddr: 0x10000411C, symSize: 0x3C }
  - { offsetInCU: 0x7152, offset: 0x10C0B, size: 0x8, addend: 0x0, symName: __ZNSt3__117__compressed_pairINS_12basic_stringIcNS_11char_traitsIcEENS_9allocatorIcEEE5__repES5_EC2B8ue170006INS_18__default_init_tagERKS5_EEOT_OT0_, symObjAddr: 0x1600, symBinAddr: 0x100004158, symSize: 0x40 }
  - { offsetInCU: 0x71A9, offset: 0x10C62, size: 0x8, addend: 0x0, symName: __ZNSt3__122__compressed_pair_elemINS_9allocatorIcEELi1ELb1EEC2B8ue170006IRKS2_vEEOT_, symObjAddr: 0x1640, symBinAddr: 0x100004198, symSize: 0x18 }
  - { offsetInCU: 0x460A, offset: 0x152DE, size: 0x8, addend: 0x0, symName: __ZNSt3__111__introsortINS_17_ClassicAlgPolicyERNS_6__lessIvvEEP4CardLb0EEEvT1_S7_T0_NS_15iterator_traitsIS7_E15difference_typeEb, symObjAddr: 0x4028, symBinAddr: 0x100008104, symSize: 0x434 }
  - { offsetInCU: 0x4736, offset: 0x1540A, size: 0x8, addend: 0x0, symName: __ZNSt3__126__insertion_sort_unguardedB8ue170006INS_17_ClassicAlgPolicyERNS_6__lessIvvEEP4CardEEvT1_S7_T0_, symObjAddr: 0x4714, symBinAddr: 0x1000087F0, symSize: 0x120 }
  - { offsetInCU: 0x4827, offset: 0x154FB, size: 0x8, addend: 0x0, symName: __ZNSt3__111__sift_downB8ue170006INS_17_ClassicAlgPolicyERNS_6__lessIvvEEP4CardEEvT1_OT0_NS_15iterator_traitsIS7_E15difference_typeES7_, symObjAddr: 0x58D0, symBinAddr: 0x1000099AC, symSize: 0x20C }
  - { offsetInCU: 0x48D5, offset: 0x155A9, size: 0x8, addend: 0x0, symName: __ZNSt3__117__floyd_sift_downB8ue170006INS_17_ClassicAlgPolicyERNS_6__lessIvvEEP4CardEET1_S7_OT0_NS_15iterator_traitsIS7_E15difference_typeE, symObjAddr: 0x5C78, symBinAddr: 0x100009D54, symSize: 0x100 }
  - { offsetInCU: 0x496D, offset: 0x15641, size: 0x8, addend: 0x0, symName: __ZNSt3__131__partition_with_equals_on_leftB8ue170006INS_17_ClassicAlgPolicyEP4CardRNS_6__lessIvvEEEET0_S7_S7_T1_, symObjAddr: 0x4A40, symBinAddr: 0x100008B1C, symSize: 0x20C }
  - { offsetInCU: 0x4A28, offset: 0x156FC, size: 0x8, addend: 0x0, symName: __ZNSt3__118__bitset_partitionB8ue170006INS_17_ClassicAlgPolicyEP4CardRNS_6__lessIvvEEEENS_4pairIT0_bEES8_S8_T1_, symObjAddr: 0x4C4C, symBinAddr: 0x100008D28, symSize: 0x324 }
  - { offsetInCU: 0x4B21, offset: 0x157F5, size: 0x8, addend: 0x0, symName: __ZNSt3__124__swap_bitmap_pos_withinB8ue170006INS_17_ClassicAlgPolicyEP4CardEEvRT0_S5_RyS6_, symObjAddr: 0x63C4, symBinAddr: 0x10000A4A0, symSize: 0x1E0 }
  - { offsetInCU: 0x4BEF, offset: 0x158C3, size: 0x8, addend: 0x0, symName: __ZNSt3__132__partition_with_equals_on_rightB8ue170006INS_17_ClassicAlgPolicyEP4CardRNS_6__lessIvvEEEENS_4pairIT0_bEES8_S8_T1_, symObjAddr: 0x4F70, symBinAddr: 0x10000904C, symSize: 0x21C }
  - { offsetInCU: 0x4CB9, offset: 0x1598D, size: 0x8, addend: 0x0, symName: __ZNSt3__127__insertion_sort_incompleteB8ue170006INS_17_ClassicAlgPolicyERNS_6__lessIvvEEP4CardEEbT1_S7_T0_, symObjAddr: 0x518C, symBinAddr: 0x100009268, symSize: 0x304 }
  - { offsetInCU: 0x627F, offset: 0x16F53, size: 0x8, addend: 0x0, symName: __ZNSt3__1lsB8ue170006IcNS_11char_traitsIcEENS_9allocatorIcEEEERNS_13basic_ostreamIT_T0_EES9_RKNS_12basic_stringIS6_S7_T1_EE, symObjAddr: 0x324, symBinAddr: 0x100004428, symSize: 0x4C }
  - { offsetInCU: 0x62D7, offset: 0x16FAB, size: 0x8, addend: 0x0, symName: __ZNSt3__112__to_addressB8ue170006I4CardEEPT_S3_, symObjAddr: 0x1468, symBinAddr: 0x100005560, symSize: 0x14 }
  - { offsetInCU: 0x630C, offset: 0x16FE0, size: 0x8, addend: 0x0, symName: __ZNSt3__13maxB8ue170006ImEERKT_S3_S3_, symObjAddr: 0x185C, symBinAddr: 0x100005954, symSize: 0x2C }
  - { offsetInCU: 0x634F, offset: 0x17023, size: 0x8, addend: 0x0, symName: __ZNSt3__13minB8ue170006ImEERKT_S3_S3_, symObjAddr: 0x1888, symBinAddr: 0x100005980, symSize: 0x2C }
  - { offsetInCU: 0x6392, offset: 0x17066, size: 0x8, addend: 0x0, symName: __ZNSt3__13minB8ue170006ImNS_6__lessIvvEEEERKT_S5_S5_T0_, symObjAddr: 0x1914, symBinAddr: 0x1000059F8, symSize: 0x54 }
  - { offsetInCU: 0x6464, offset: 0x17138, size: 0x8, addend: 0x0, symName: __ZNSt3__120__throw_length_errorB8ue170006EPKc, symObjAddr: 0x19F0, symBinAddr: 0x100005ACC, symSize: 0x64 }
  - { offsetInCU: 0x648F, offset: 0x17163, size: 0x8, addend: 0x0, symName: __ZNSt3__13maxB8ue170006ImNS_6__lessIvvEEEERKT_S5_S5_T0_, symObjAddr: 0x1B34, symBinAddr: 0x100005C10, symSize: 0x54 }
  - { offsetInCU: 0x64E9, offset: 0x171BD, size: 0x8, addend: 0x0, symName: __ZNSt3__119__allocate_at_leastB8ue170006INS_9allocatorI4CardEEEENS_19__allocation_resultINS_16allocator_traitsIT_E7pointerEEERS6_m, symObjAddr: 0x1C98, symBinAddr: 0x100005D74, symSize: 0x40 }
  - { offsetInCU: 0x652C, offset: 0x17200, size: 0x8, addend: 0x0, symName: __ZNSt3__117__libcpp_allocateB8ue170006Emm, symObjAddr: 0x1E1C, symBinAddr: 0x100005EF8, symSize: 0x60 }
  - { offsetInCU: 0x6586, offset: 0x1725A, size: 0x8, addend: 0x0, symName: __ZNSt3__124__is_overaligned_for_newB8ue170006Em, symObjAddr: 0x1E7C, symBinAddr: 0x100005F58, symSize: 0x20 }
  - { offsetInCU: 0x65B5, offset: 0x17289, size: 0x8, addend: 0x0, symName: __ZNSt3__121__libcpp_operator_newB8ue170006IJmSt11align_val_tEEEPvDpT_, symObjAddr: 0x1E9C, symBinAddr: 0x100005F78, symSize: 0x2C }
  - { offsetInCU: 0x6605, offset: 0x172D9, size: 0x8, addend: 0x0, symName: __ZNSt3__121__libcpp_operator_newB8ue170006IJmEEEPvDpT_, symObjAddr: 0x1EC8, symBinAddr: 0x100005FA4, symSize: 0x24 }
  - { offsetInCU: 0x6640, offset: 0x17314, size: 0x8, addend: 0x0, symName: __ZNSt3__142__uninitialized_allocator_move_if_noexceptB8ue170006INS_9allocatorI4CardEENS_16reverse_iteratorIPS2_EES6_S2_vEET1_RT_T0_SA_S7_, symObjAddr: 0x2008, symBinAddr: 0x1000060E4, symSize: 0x78 }
  - { offsetInCU: 0x66BE, offset: 0x17392, size: 0x8, addend: 0x0, symName: __ZNSt3__14swapB8ue170006IP4CardEENS_9enable_ifIXaasr21is_move_constructibleIT_EE5valuesr18is_move_assignableIS4_EE5valueEvE4typeERS4_S7_, symObjAddr: 0x20CC, symBinAddr: 0x1000061A8, symSize: 0x3C }
  - { offsetInCU: 0x670F, offset: 0x173E3, size: 0x8, addend: 0x0, symName: __ZNSt3__14moveB8ue170006INS_16reverse_iteratorIP4CardEES4_EET0_T_S6_S5_, symObjAddr: 0x21FC, symBinAddr: 0x1000062D8, symSize: 0x78 }
  - { offsetInCU: 0x6769, offset: 0x1743D, size: 0x8, addend: 0x0, symName: __ZNSt3__16__moveB8ue170006INS_17_ClassicAlgPolicyENS_16reverse_iteratorIP4CardEES5_S5_EENS_4pairIT0_T2_EES7_T1_S8_, symObjAddr: 0x2274, symBinAddr: 0x100006350, symSize: 0x64 }
  - { offsetInCU: 0x67D5, offset: 0x174A9, size: 0x8, addend: 0x0, symName: __ZNSt3__123__dispatch_copy_or_moveB8ue170006INS_17_ClassicAlgPolicyENS_11__move_loopIS1_EENS_14__move_trivialENS_16reverse_iteratorIP4CardEES8_S8_EENS_4pairIT2_T4_EESA_T3_SB_, symObjAddr: 0x22D8, symBinAddr: 0x1000063B4, symSize: 0x64 }
  - { offsetInCU: 0x6853, offset: 0x17527, size: 0x8, addend: 0x0, symName: __ZNSt3__121__unwrap_and_dispatchB8ue170006INS_10__overloadINS_11__move_loopINS_17_ClassicAlgPolicyEEENS_14__move_trivialEEENS_16reverse_iteratorIP4CardEESA_SA_Li0EEENS_4pairIT0_T2_EESC_T1_SD_, symObjAddr: 0x233C, symBinAddr: 0x100006418, symSize: 0x12C }
  - { offsetInCU: 0x68E4, offset: 0x175B8, size: 0x8, addend: 0x0, symName: __ZNSt3__114__unwrap_rangeB8ue170006INS_16reverse_iteratorIP4CardEES4_EENS_4pairIT0_S6_EET_S8_, symObjAddr: 0x2468, symBinAddr: 0x100006544, symSize: 0x84 }
  - { offsetInCU: 0x6A60, offset: 0x17734, size: 0x8, addend: 0x0, symName: __ZNSt3__113__unwrap_iterB8ue170006INS_16reverse_iteratorIP4CardEENS_18__unwrap_iter_implIS4_Lb0EEELi0EEEDTclsrT0_8__unwrapclsr3stdE7declvalIT_EEEES8_, symObjAddr: 0x258C, symBinAddr: 0x100006668, symSize: 0x44 }
  - { offsetInCU: 0x6AA5, offset: 0x17779, size: 0x8, addend: 0x0, symName: __ZNSt3__19make_pairB8ue170006INS_16reverse_iteratorIP4CardEES4_EENS_4pairINS_18__unwrap_ref_decayIT_E4typeENS6_IT0_E4typeEEEOS7_OSA_, symObjAddr: 0x25D0, symBinAddr: 0x1000066AC, symSize: 0x38 }
  - { offsetInCU: 0x6AF4, offset: 0x177C8, size: 0x8, addend: 0x0, symName: __ZNSt3__114__rewrap_rangeB8ue170006INS_16reverse_iteratorIP4CardEES4_EET_S5_T0_, symObjAddr: 0x2608, symBinAddr: 0x1000066E4, symSize: 0x5C }
  - { offsetInCU: 0x6B40, offset: 0x17814, size: 0x8, addend: 0x0, symName: __ZNSt3__113__rewrap_iterB8ue170006INS_16reverse_iteratorIP4CardEES4_NS_18__unwrap_iter_implIS4_Lb0EEEEET_S7_T0_, symObjAddr: 0x2664, symBinAddr: 0x100006740, symSize: 0x74 }
  - { offsetInCU: 0x6B95, offset: 0x17869, size: 0x8, addend: 0x0, symName: __ZNSt3__1neB8ue170006IP4CardS2_EEbRKNS_16reverse_iteratorIT_EERKNS3_IT0_EE, symObjAddr: 0x26D8, symBinAddr: 0x1000067B4, symSize: 0x48 }
  - { offsetInCU: 0x6D62, offset: 0x17A36, size: 0x8, addend: 0x0, symName: __ZNSt3__119__libcpp_deallocateB8ue170006EPvmm, symObjAddr: 0x2AD0, symBinAddr: 0x100006BAC, symSize: 0x60 }
  - { offsetInCU: 0x6DC8, offset: 0x17A9C, size: 0x8, addend: 0x0, symName: __ZNSt3__127__do_deallocate_handle_sizeB8ue170006IJSt11align_val_tEEEvPvmDpT_, symObjAddr: 0x2B30, symBinAddr: 0x100006C0C, symSize: 0x30 }
  - { offsetInCU: 0x6E1E, offset: 0x17AF2, size: 0x8, addend: 0x0, symName: __ZNSt3__127__do_deallocate_handle_sizeB8ue170006IJEEEvPvmDpT_, symObjAddr: 0x2B60, symBinAddr: 0x100006C3C, symSize: 0x28 }
  - { offsetInCU: 0x6E5E, offset: 0x17B32, size: 0x8, addend: 0x0, symName: __ZNSt3__124__libcpp_operator_deleteB8ue170006IJPvSt11align_val_tEEEvDpT_, symObjAddr: 0x2B88, symBinAddr: 0x100006C64, symSize: 0x2C }
  - { offsetInCU: 0x6EAB, offset: 0x17B7F, size: 0x8, addend: 0x0, symName: __ZNSt3__124__libcpp_operator_deleteB8ue170006IJPvEEEvDpT_, symObjAddr: 0x2BB4, symBinAddr: 0x100006C90, symSize: 0x24 }
  - { offsetInCU: 0x6F02, offset: 0x17BD6, size: 0x8, addend: 0x0, symName: __ZNSt3__1miB8ue170006IPK4CardS3_EEDTmicldtfp_4baseEcldtfp0_4baseEERKNS_11__wrap_iterIT_EERKNS5_IT0_EE, symObjAddr: 0x2DA8, symBinAddr: 0x100006E84, symSize: 0x48 }
  - { offsetInCU: 0x6F4E, offset: 0x17C22, size: 0x8, addend: 0x0, symName: __ZNSt3__14moveB8ue170006IP4CardS2_EET0_T_S4_S3_, symObjAddr: 0x2E68, symBinAddr: 0x100006F44, symSize: 0x40 }
  - { offsetInCU: 0x6FA8, offset: 0x17C7C, size: 0x8, addend: 0x0, symName: __ZNSt3__16__moveB8ue170006INS_17_ClassicAlgPolicyEP4CardS3_S3_EENS_4pairIT0_T2_EES5_T1_S6_, symObjAddr: 0x30E4, symBinAddr: 0x1000071C0, symSize: 0x44 }
  - { offsetInCU: 0x7014, offset: 0x17CE8, size: 0x8, addend: 0x0, symName: __ZNSt3__123__dispatch_copy_or_moveB8ue170006INS_17_ClassicAlgPolicyENS_11__move_loopIS1_EENS_14__move_trivialEP4CardS6_S6_EENS_4pairIT2_T4_EES8_T3_S9_, symObjAddr: 0x3128, symBinAddr: 0x100007204, symSize: 0x44 }
  - { offsetInCU: 0x7092, offset: 0x17D66, size: 0x8, addend: 0x0, symName: __ZNSt3__121__unwrap_and_dispatchB8ue170006INS_10__overloadINS_11__move_loopINS_17_ClassicAlgPolicyEEENS_14__move_trivialEEEP4CardS8_S8_Li0EEENS_4pairIT0_T2_EESA_T1_SB_, symObjAddr: 0x316C, symBinAddr: 0x100007248, symSize: 0xB4 }
  - { offsetInCU: 0x7121, offset: 0x17DF5, size: 0x8, addend: 0x0, symName: __ZNSt3__114__unwrap_rangeB8ue170006IP4CardS2_EENS_4pairIT0_S4_EET_S6_, symObjAddr: 0x3220, symBinAddr: 0x1000072FC, symSize: 0x60 }
  - { offsetInCU: 0x72B9, offset: 0x17F8D, size: 0x8, addend: 0x0, symName: __ZNSt3__113__unwrap_iterB8ue170006IP4CardNS_18__unwrap_iter_implIS2_Lb1EEELi0EEEDTclsrT0_8__unwrapclsr3stdE7declvalIT_EEEES6_, symObjAddr: 0x32C8, symBinAddr: 0x1000073A4, symSize: 0x24 }
  - { offsetInCU: 0x72FE, offset: 0x17FD2, size: 0x8, addend: 0x0, symName: __ZNSt3__19make_pairB8ue170006IP4CardS2_EENS_4pairINS_18__unwrap_ref_decayIT_E4typeENS4_IT0_E4typeEEEOS5_OS8_, symObjAddr: 0x32EC, symBinAddr: 0x1000073C8, symSize: 0x38 }
  - { offsetInCU: 0x734D, offset: 0x18021, size: 0x8, addend: 0x0, symName: __ZNSt3__114__rewrap_rangeB8ue170006IP4CardS2_EET_S3_T0_, symObjAddr: 0x3324, symBinAddr: 0x100007400, symSize: 0x2C }
  - { offsetInCU: 0x7399, offset: 0x1806D, size: 0x8, addend: 0x0, symName: __ZNSt3__113__rewrap_iterB8ue170006IP4CardS2_NS_18__unwrap_iter_implIS2_Lb1EEEEET_S5_T0_, symObjAddr: 0x3350, symBinAddr: 0x10000742C, symSize: 0x3C }
  - { offsetInCU: 0x73EE, offset: 0x180C2, size: 0x8, addend: 0x0, symName: __ZNSt3__119__copy_trivial_implB8ue170006I4CardS1_EENS_4pairIPT_PT0_EES4_S4_S6_, symObjAddr: 0x338C, symBinAddr: 0x100007468, symSize: 0x80 }
  - { offsetInCU: 0x7456, offset: 0x1812A, size: 0x8, addend: 0x0, symName: __ZNSt3__119__constexpr_memmoveB8ue170006I4CardS1_Li0EEEPT_S3_PT0_NS_15__element_countE, symObjAddr: 0x340C, symBinAddr: 0x1000074E8, symSize: 0x64 }
  - { offsetInCU: 0x74C5, offset: 0x18199, size: 0x8, addend: 0x0, symName: __ZNSt3__19make_pairB8ue170006IRP4CardS2_EENS_4pairINS_18__unwrap_ref_decayIT_E4typeENS5_IT0_E4typeEEEOS6_OS9_, symObjAddr: 0x3470, symBinAddr: 0x10000754C, symSize: 0x38 }
  - { offsetInCU: 0x7567, offset: 0x1823B, size: 0x8, addend: 0x0, symName: __ZNSt3__14sortB8ue170006INS_11__wrap_iterIP4CardEEEEvT_S5_, symObjAddr: 0x3DC4, symBinAddr: 0x100007EA0, symSize: 0x3C }
  - { offsetInCU: 0x75AA, offset: 0x1827E, size: 0x8, addend: 0x0, symName: __ZNSt3__14sortB8ue170006INS_11__wrap_iterIP4CardEENS_6__lessIvvEEEEvT_S7_T0_, symObjAddr: 0x3E30, symBinAddr: 0x100007F0C, symSize: 0x40 }
  - { offsetInCU: 0x7605, offset: 0x182D9, size: 0x8, addend: 0x0, symName: __ZNSt3__111__sort_implB8ue170006INS_17_ClassicAlgPolicyENS_11__wrap_iterIP4CardEENS_6__lessIvvEEEEvT0_S8_RT1_, symObjAddr: 0x3E70, symBinAddr: 0x100007F4C, symSize: 0xA8 }
  - { offsetInCU: 0x7669, offset: 0x1833D, size: 0x8, addend: 0x0, symName: __ZNSt3__123__debug_randomize_rangeB8ue170006INS_17_ClassicAlgPolicyENS_11__wrap_iterIP4CardEES5_EEvT0_T1_, symObjAddr: 0x3F18, symBinAddr: 0x100007FF4, symSize: 0x14 }
  - { offsetInCU: 0x76BB, offset: 0x1838F, size: 0x8, addend: 0x0, symName: __ZNSt3__115__sort_dispatchB8ue170006INS_17_ClassicAlgPolicyEP4CardNS_6__lessIvvEEEEvT0_S6_RT1_, symObjAddr: 0x3F2C, symBinAddr: 0x100008008, symSize: 0x64 }
  - { offsetInCU: 0x773A, offset: 0x1840E, size: 0x8, addend: 0x0, symName: __ZNSt3__113__unwrap_iterB8ue170006INS_11__wrap_iterIP4CardEENS_18__unwrap_iter_implIS4_Lb1EEELi0EEEDTclsrT0_8__unwrapclsr3stdE7declvalIT_EEEES8_, symObjAddr: 0x3F90, symBinAddr: 0x10000806C, symSize: 0x2C }
  - { offsetInCU: 0x777F, offset: 0x18453, size: 0x8, addend: 0x0, symName: __ZNSt3__135__check_strict_weak_ordering_sortedB8ue170006IP4CardNS_6__lessIvvEEEEvT_S5_RT0_, symObjAddr: 0x3FBC, symBinAddr: 0x100008098, symSize: 0x18 }
  - { offsetInCU: 0x77D6, offset: 0x184AA, size: 0x8, addend: 0x0, symName: __ZNSt3__17__log2iB8ue170006IlEET_S1_, symObjAddr: 0x3FD4, symBinAddr: 0x1000080B0, symSize: 0x54 }
  - { offsetInCU: 0x780D, offset: 0x184E1, size: 0x8, addend: 0x0, symName: __ZNSt3__112__libcpp_clzB8ue170006Em, symObjAddr: 0x4474, symBinAddr: 0x100008550, symSize: 0x1C }
  - { offsetInCU: 0x7839, offset: 0x1850D, size: 0x8, addend: 0x0, symName: __ZNSt3__124__sort3_maybe_branchlessB8ue170006INS_17_ClassicAlgPolicyERNS_6__lessIvvEEP4CardEENS_9enable_ifIXntsr21__use_branchless_sortIT0_T1_EE5valueEvE4typeES9_S9_S9_S8_, symObjAddr: 0x44F8, symBinAddr: 0x1000085D4, symSize: 0x3C }
  - { offsetInCU: 0x78AA, offset: 0x1857E, size: 0x8, addend: 0x0, symName: __ZNSt3__124__sort4_maybe_branchlessB8ue170006INS_17_ClassicAlgPolicyERNS_6__lessIvvEEP4CardEENS_9enable_ifIXntsr21__use_branchless_sortIT0_T1_EE5valueEvE4typeES9_S9_S9_S9_S8_, symObjAddr: 0x4534, symBinAddr: 0x100008610, symSize: 0x44 }
  - { offsetInCU: 0x7929, offset: 0x185FD, size: 0x8, addend: 0x0, symName: __ZNSt3__124__sort5_maybe_branchlessB8ue170006INS_17_ClassicAlgPolicyERNS_6__lessIvvEEP4CardEENS_9enable_ifIXntsr21__use_branchless_sortIT0_T1_EE5valueEvE4typeES9_S9_S9_S9_S9_S8_, symObjAddr: 0x4578, symBinAddr: 0x100008654, symSize: 0x4C }
  - { offsetInCU: 0x79B6, offset: 0x1868A, size: 0x8, addend: 0x0, symName: __ZNSt3__116__insertion_sortB8ue170006INS_17_ClassicAlgPolicyERNS_6__lessIvvEEP4CardEEvT1_S7_T0_, symObjAddr: 0x45C4, symBinAddr: 0x1000086A0, symSize: 0x150 }
  - { offsetInCU: 0x7A7A, offset: 0x1874E, size: 0x8, addend: 0x0, symName: __ZNSt3__114__partial_sortB8ue170006INS_17_ClassicAlgPolicyERNS_6__lessIvvEEP4CardS6_EET1_S7_S7_T2_RT0_, symObjAddr: 0x4834, symBinAddr: 0x100008910, symSize: 0x94 }
  - { offsetInCU: 0x7B02, offset: 0x187D6, size: 0x8, addend: 0x0, symName: __ZNSt3__17__sort3B8ue170006INS_17_ClassicAlgPolicyERNS_6__lessIvvEEP4CardEEjT1_S7_S7_T0_, symObjAddr: 0x48C8, symBinAddr: 0x1000089A4, symSize: 0x144 }
  - { offsetInCU: 0x7B81, offset: 0x18855, size: 0x8, addend: 0x0, symName: __ZNSt3__19iter_swapB8ue170006IP4CardS2_EEvT_T0_, symObjAddr: 0x54A8, symBinAddr: 0x100009584, symSize: 0x2C }
  - { offsetInCU: 0x7BCA, offset: 0x1889E, size: 0x8, addend: 0x0, symName: __ZNSt3__14swapB8ue170006I4CardEENS_9enable_ifIXaasr21is_move_constructibleIT_EE5valuesr18is_move_assignableIS3_EE5valueEvE4typeERS3_S6_, symObjAddr: 0x54D4, symBinAddr: 0x1000095B0, symSize: 0x3C }
  - { offsetInCU: 0x7C1B, offset: 0x188EF, size: 0x8, addend: 0x0, symName: __ZNSt3__17__sort4B8ue170006INS_17_ClassicAlgPolicyERNS_6__lessIvvEEP4CardEEvT1_S7_S7_S7_T0_, symObjAddr: 0x5510, symBinAddr: 0x1000095EC, symSize: 0xB8 }
  - { offsetInCU: 0x7C97, offset: 0x1896B, size: 0x8, addend: 0x0, symName: __ZNSt3__17__sort5B8ue170006INS_17_ClassicAlgPolicyERNS_6__lessIvvEEP4CardEEvT1_S7_S7_S7_S7_T0_, symObjAddr: 0x55C8, symBinAddr: 0x1000096A4, symSize: 0xE8 }
  - { offsetInCU: 0x7D21, offset: 0x189F5, size: 0x8, addend: 0x0, symName: __ZNSt3__123__debug_randomize_rangeB8ue170006INS_17_ClassicAlgPolicyEP4CardS3_EEvT0_T1_, symObjAddr: 0x56F4, symBinAddr: 0x1000097D0, symSize: 0x14 }
  - { offsetInCU: 0x7D73, offset: 0x18A47, size: 0x8, addend: 0x0, symName: __ZNSt3__119__partial_sort_implB8ue170006INS_17_ClassicAlgPolicyERNS_6__lessIvvEEP4CardS6_EET1_S7_S7_T2_OT0_, symObjAddr: 0x5708, symBinAddr: 0x1000097E4, symSize: 0x110 }
  - { offsetInCU: 0x7E09, offset: 0x18ADD, size: 0x8, addend: 0x0, symName: __ZNSt3__111__make_heapB8ue170006INS_17_ClassicAlgPolicyERNS_6__lessIvvEEP4CardEEvT1_S7_OT0_, symObjAddr: 0x5818, symBinAddr: 0x1000098F4, symSize: 0xB8 }
  - { offsetInCU: 0x7EAC, offset: 0x18B80, size: 0x8, addend: 0x0, symName: __ZNSt3__111__sort_heapB8ue170006INS_17_ClassicAlgPolicyERNS_6__lessIvvEEP4CardEEvT1_S7_OT0_, symObjAddr: 0x5ADC, symBinAddr: 0x100009BB8, symSize: 0xA8 }
  - { offsetInCU: 0x7F4F, offset: 0x18C23, size: 0x8, addend: 0x0, symName: __ZNSt3__110__pop_heapB8ue170006INS_17_ClassicAlgPolicyENS_6__lessIvvEEP4CardEEvT1_S6_RT0_NS_15iterator_traitsIS6_E15difference_typeE, symObjAddr: 0x5B84, symBinAddr: 0x100009C60, symSize: 0xF4 }
  - { offsetInCU: 0x8000, offset: 0x18CD4, size: 0x8, addend: 0x0, symName: __ZNSt3__19__sift_upB8ue170006INS_17_ClassicAlgPolicyERNS_6__lessIvvEEP4CardEEvT1_S7_OT0_NS_15iterator_traitsIS7_E15difference_typeE, symObjAddr: 0x5D78, symBinAddr: 0x100009E54, symSize: 0x11C }
  - { offsetInCU: 0x80B1, offset: 0x18D85, size: 0x8, addend: 0x0, symName: __ZNSt3__122__populate_left_bitsetB8ue170006IRNS_6__lessIvvEEP4CardS4_EEvT0_T_RT1_Ry, symObjAddr: 0x5E94, symBinAddr: 0x100009F70, symSize: 0xA8 }
  - { offsetInCU: 0x816D, offset: 0x18E41, size: 0x8, addend: 0x0, symName: __ZNSt3__123__populate_right_bitsetB8ue170006IRNS_6__lessIvvEEP4CardS4_EEvT0_T_RT1_Ry, symObjAddr: 0x5F3C, symBinAddr: 0x10000A018, symSize: 0xA0 }
  - { offsetInCU: 0x8229, offset: 0x18EFD, size: 0x8, addend: 0x0, symName: __ZNSt3__117__swap_bitmap_posB8ue170006INS_17_ClassicAlgPolicyEP4CardEEvT0_S4_RyS5_, symObjAddr: 0x5FDC, symBinAddr: 0x10000A0B8, symSize: 0x100 }
  - { offsetInCU: 0x82CB, offset: 0x18F9F, size: 0x8, addend: 0x0, symName: __ZNSt3__133__bitset_partition_partial_blocksB8ue170006INS_17_ClassicAlgPolicyERNS_6__lessIvvEEP4CardS5_EEvRT1_S8_T0_RT2_RySC_, symObjAddr: 0x60DC, symBinAddr: 0x10000A1B8, symSize: 0x2E8 }
  - { offsetInCU: 0x844D, offset: 0x19121, size: 0x8, addend: 0x0, symName: __ZNSt3__19make_pairB8ue170006IRP4CardRbEENS_4pairINS_18__unwrap_ref_decayIT_E4typeENS6_IT0_E4typeEEEOS7_OSA_, symObjAddr: 0x65A4, symBinAddr: 0x10000A680, symSize: 0x38 }
  - { offsetInCU: 0x849C, offset: 0x19170, size: 0x8, addend: 0x0, symName: __ZNSt3__112__libcpp_ctzB8ue170006Ey, symObjAddr: 0x65DC, symBinAddr: 0x10000A6B8, symSize: 0x20 }
  - { offsetInCU: 0x84C8, offset: 0x1919C, size: 0x8, addend: 0x0, symName: __ZNSt3__113__libcpp_blsrB8ue170006Ey, symObjAddr: 0x65FC, symBinAddr: 0x10000A6D8, symSize: 0x2C }
  - { offsetInCU: 0x84F4, offset: 0x191C8, size: 0x8, addend: 0x0, symName: __ZNSt3__112__libcpp_clzB8ue170006Ey, symObjAddr: 0x665C, symBinAddr: 0x10000A738, symSize: 0x1C }
  - { offsetInCU: 0x8648, offset: 0x1931C, size: 0x8, addend: 0x0, symName: __ZNSt3__112__to_addressB8ue170006INS_11__wrap_iterIP4CardEEvEEu7__decayIDTclsr19__to_address_helperIT_EE6__callclsr3stdE7declvalIRKS5_EEEEES7_, symObjAddr: 0x6714, symBinAddr: 0x10000A7F0, symSize: 0x24 }
  - { offsetInCU: 0x8724, offset: 0x193F8, size: 0x8, addend: 0x0, symName: __ZNSt3__1neB8ue170006IcNS_11char_traitsIcEENS_9allocatorIcEEEEbRKNS_12basic_stringIT_T0_T1_EEPKS6_, symObjAddr: 0x6BF4, symBinAddr: 0x10000A950, symSize: 0x34 }
  - { offsetInCU: 0x877C, offset: 0x19450, size: 0x8, addend: 0x0, symName: __ZNSt3__112__to_addressB8ue170006IKcEEPT_S3_, symObjAddr: 0x7DB0, symBinAddr: 0x10000AA00, symSize: 0x14 }
  - { offsetInCU: 0x8A08, offset: 0x196DC, size: 0x8, addend: 0x0, symName: __ZSt28__throw_bad_array_new_lengthB8ue170006v, symObjAddr: 0x1DE8, symBinAddr: 0x100005EC4, symSize: 0x34 }
  - { offsetInCU: 0x8DC5, offset: 0x19A99, size: 0x8, addend: 0x0, symName: __ZNSt3__16vectorI4CardNS_9allocatorIS1_EEE26__swap_out_circular_bufferERNS_14__split_bufferIS1_RS3_EE, symObjAddr: 0x1664, symBinAddr: 0x10000575C, symSize: 0x110 }
  - { offsetInCU: 0xAD94, offset: 0x1BA68, size: 0x8, addend: 0x0, symName: __Z14Player_factoryRKNSt3__112basic_stringIcNS_11char_traitsIcEENS_9allocatorIcEEEES7_, symObjAddr: 0x0, symBinAddr: 0x1000041B0, symSize: 0x1C8 }
  - { offsetInCU: 0xAF15, offset: 0x1BBE9, size: 0x8, addend: 0x0, symName: __ZN12SimplePlayerC1ENSt3__112basic_stringIcNS0_11char_traitsIcEENS0_9allocatorIcEEEE, symObjAddr: 0x274, symBinAddr: 0x100004378, symSize: 0x34 }
  - { offsetInCU: 0xB0A1, offset: 0x1BD75, size: 0x8, addend: 0x0, symName: __ZN11HumanPlayerC1ENSt3__112basic_stringIcNS0_11char_traitsIcEENS0_9allocatorIcEEEE, symObjAddr: 0x2A8, symBinAddr: 0x1000043AC, symSize: 0x34 }
  - { offsetInCU: 0xB0D7, offset: 0x1BDAB, size: 0x8, addend: 0x0, symName: __ZlsRNSt3__113basic_ostreamIcNS_11char_traitsIcEEEERK6Player, symObjAddr: 0x2DC, symBinAddr: 0x1000043E0, symSize: 0x48 }
  - { offsetInCU: 0xB115, offset: 0x1BDE9, size: 0x8, addend: 0x0, symName: __ZN12SimplePlayerC2ENSt3__112basic_stringIcNS0_11char_traitsIcEENS0_9allocatorIcEEEE, symObjAddr: 0x370, symBinAddr: 0x100004474, symSize: 0x90 }
  - { offsetInCU: 0xB14C, offset: 0x1BE20, size: 0x8, addend: 0x0, symName: __ZN6PlayerC2Ev, symObjAddr: 0x400, symBinAddr: 0x100004504, symSize: 0x24 }
  - { offsetInCU: 0xB176, offset: 0x1BE4A, size: 0x8, addend: 0x0, symName: __ZNSt3__16vectorI4CardNS_9allocatorIS1_EEEC1B8ue170006Ev, symObjAddr: 0x424, symBinAddr: 0x100004528, symSize: 0x2C }
  - { offsetInCU: 0xB19E, offset: 0x1BE72, size: 0x8, addend: 0x0, symName: __ZN6PlayerD2Ev, symObjAddr: 0x450, symBinAddr: 0x100004554, symSize: 0x14 }
  - { offsetInCU: 0xB1C7, offset: 0x1BE9B, size: 0x8, addend: 0x0, symName: __ZNK12SimplePlayer8get_nameEv, symObjAddr: 0x464, symBinAddr: 0x100004568, symSize: 0x18 }
  - { offsetInCU: 0xB1EC, offset: 0x1BEC0, size: 0x8, addend: 0x0, symName: __ZN12SimplePlayer8add_cardERK4Card, symObjAddr: 0x47C, symBinAddr: 0x100004580, symSize: 0x74 }
  - { offsetInCU: 0xB21E, offset: 0x1BEF2, size: 0x8, addend: 0x0, symName: __ZNK12SimplePlayer10make_trumpERK4CardbiR4Suit, symObjAddr: 0x4F0, symBinAddr: 0x1000045F4, symSize: 0x2F4 }
  - { offsetInCU: 0xB2CE, offset: 0x1BFA2, size: 0x8, addend: 0x0, symName: __ZN12SimplePlayer15add_and_discardERK4Card, symObjAddr: 0x7E4, symBinAddr: 0x1000048E8, symSize: 0x13C }
  - { offsetInCU: 0xB338, offset: 0x1C00C, size: 0x8, addend: 0x0, symName: __ZN12SimplePlayer9lead_cardE4Suit, symObjAddr: 0x920, symBinAddr: 0x100004A24, symSize: 0x32C }
  - { offsetInCU: 0xB404, offset: 0x1C0D8, size: 0x8, addend: 0x0, symName: __ZN12SimplePlayer9play_cardERK4Card4Suit, symObjAddr: 0xC4C, symBinAddr: 0x100004D50, symSize: 0x350 }
  - { offsetInCU: 0xB4DE, offset: 0x1C1B2, size: 0x8, addend: 0x0, symName: __ZN12SimplePlayerD1Ev, symObjAddr: 0xF9C, symBinAddr: 0x1000050A0, symSize: 0x2C }
  - { offsetInCU: 0xB508, offset: 0x1C1DC, size: 0x8, addend: 0x0, symName: __ZN12SimplePlayerD0Ev, symObjAddr: 0xFC8, symBinAddr: 0x1000050CC, symSize: 0x30 }
  - { offsetInCU: 0xB532, offset: 0x1C206, size: 0x8, addend: 0x0, symName: __ZN6PlayerD1Ev, symObjAddr: 0xFF8, symBinAddr: 0x1000050FC, symSize: 0x14 }
  - { offsetInCU: 0xB55B, offset: 0x1C22F, size: 0x8, addend: 0x0, symName: __ZN6PlayerD0Ev, symObjAddr: 0x100C, symBinAddr: 0x100005110, symSize: 0xC }
  - { offsetInCU: 0xB584, offset: 0x1C258, size: 0x8, addend: 0x0, symName: __ZNSt3__16vectorI4CardNS_9allocatorIS1_EEEC2B8ue170006Ev, symObjAddr: 0x1018, symBinAddr: 0x10000511C, symSize: 0x4C }
  - { offsetInCU: 0xB5B6, offset: 0x1C28A, size: 0x8, addend: 0x0, symName: __ZNSt3__117__compressed_pairIP4CardNS_9allocatorIS1_EEEC1B8ue170006IDnNS_18__default_init_tagEEEOT_OT0_, symObjAddr: 0x1064, symBinAddr: 0x100005168, symSize: 0x3C }
  - { offsetInCU: 0xB60C, offset: 0x1C2E0, size: 0x8, addend: 0x0, symName: __ZNSt3__117__compressed_pairIP4CardNS_9allocatorIS1_EEEC2B8ue170006IDnNS_18__default_init_tagEEEOT_OT0_, symObjAddr: 0x10AC, symBinAddr: 0x1000051A4, symSize: 0x40 }
  - { offsetInCU: 0xB662, offset: 0x1C336, size: 0x8, addend: 0x0, symName: __ZNSt3__122__compressed_pair_elemIP4CardLi0ELb0EEC2B8ue170006IDnvEEOT_, symObjAddr: 0x10EC, symBinAddr: 0x1000051E4, symSize: 0x1C }
  - { offsetInCU: 0xB6A3, offset: 0x1C377, size: 0x8, addend: 0x0, symName: __ZNSt3__122__compressed_pair_elemINS_9allocatorI4CardEELi1ELb1EEC2B8ue170006ENS_18__default_init_tagE, symObjAddr: 0x1108, symBinAddr: 0x100005200, symSize: 0x2C }
  - { offsetInCU: 0xB6D6, offset: 0x1C3AA, size: 0x8, addend: 0x0, symName: __ZNSt3__19allocatorI4CardEC2B8ue170006Ev, symObjAddr: 0x1134, symBinAddr: 0x10000522C, symSize: 0x2C }
  - { offsetInCU: 0xB6FE, offset: 0x1C3D2, size: 0x8, addend: 0x0, symName: __ZNSt3__116__non_trivial_ifILb1ENS_9allocatorI4CardEEEC2B8ue170006Ev, symObjAddr: 0x1160, symBinAddr: 0x100005258, symSize: 0x14 }
  - { offsetInCU: 0xB727, offset: 0x1C3FB, size: 0x8, addend: 0x0, symName: __ZNKSt3__16vectorI4CardNS_9allocatorIS1_EEE4sizeB8ue170006Ev, symObjAddr: 0x1174, symBinAddr: 0x10000526C, symSize: 0x28 }
  - { offsetInCU: 0xB74C, offset: 0x1C420, size: 0x8, addend: 0x0, symName: __ZNSt3__16vectorI4CardNS_9allocatorIS1_EEE9push_backB8ue170006ERKS1_, symObjAddr: 0x119C, symBinAddr: 0x100005294, symSize: 0x6C }
  - { offsetInCU: 0xB782, offset: 0x1C456, size: 0x8, addend: 0x0, symName: __ZNSt3__16vectorI4CardNS_9allocatorIS1_EEE9__end_capB8ue170006Ev, symObjAddr: 0x1208, symBinAddr: 0x100005300, symSize: 0x28 }
  - { offsetInCU: 0xB7A6, offset: 0x1C47A, size: 0x8, addend: 0x0, symName: __ZNSt3__16vectorI4CardNS_9allocatorIS1_EEE22__construct_one_at_endB8ue170006IJRKS1_EEEvDpOT_, symObjAddr: 0x1230, symBinAddr: 0x100005328, symSize: 0x90 }
  - { offsetInCU: 0xB7F5, offset: 0x1C4C9, size: 0x8, addend: 0x0, symName: __ZNSt3__16vectorI4CardNS_9allocatorIS1_EEE21__push_back_slow_pathIRKS1_EEvOT_, symObjAddr: 0x12C0, symBinAddr: 0x1000053B8, symSize: 0xD8 }
  - { offsetInCU: 0xB852, offset: 0x1C526, size: 0x8, addend: 0x0, symName: __ZNSt3__117__compressed_pairIP4CardNS_9allocatorIS1_EEE5firstB8ue170006Ev, symObjAddr: 0x1398, symBinAddr: 0x100005490, symSize: 0x24 }
  - { offsetInCU: 0xB876, offset: 0x1C54A, size: 0x8, addend: 0x0, symName: __ZNSt3__122__compressed_pair_elemIP4CardLi0ELb0EE5__getB8ue170006Ev, symObjAddr: 0x13BC, symBinAddr: 0x1000054B4, symSize: 0x14 }
  - { offsetInCU: 0xB8B4, offset: 0x1C588, size: 0x8, addend: 0x0, symName: __ZNSt3__16vectorI4CardNS_9allocatorIS1_EEE21_ConstructTransactionC1B8ue170006ERS4_m, symObjAddr: 0x13D0, symBinAddr: 0x1000054C8, symSize: 0x3C }
  - { offsetInCU: 0xB8FA, offset: 0x1C5CE, size: 0x8, addend: 0x0, symName: __ZNSt3__116allocator_traitsINS_9allocatorI4CardEEE9constructB8ue170006IS2_JRKS2_EvEEvRS3_PT_DpOT0_, symObjAddr: 0x140C, symBinAddr: 0x100005504, symSize: 0x34 }
  - { offsetInCU: 0xB953, offset: 0x1C627, size: 0x8, addend: 0x0, symName: __ZNSt3__16vectorI4CardNS_9allocatorIS1_EEE7__allocB8ue170006Ev, symObjAddr: 0x1440, symBinAddr: 0x100005538, symSize: 0x28 }
  - { offsetInCU: 0xB977, offset: 0x1C64B, size: 0x8, addend: 0x0, symName: __ZNSt3__16vectorI4CardNS_9allocatorIS1_EEE21_ConstructTransactionD1B8ue170006Ev, symObjAddr: 0x147C, symBinAddr: 0x100005574, symSize: 0x2C }
  - { offsetInCU: 0xB99F, offset: 0x1C673, size: 0x8, addend: 0x0, symName: __ZNSt3__16vectorI4CardNS_9allocatorIS1_EEE21_ConstructTransactionC2B8ue170006ERS4_m, symObjAddr: 0x14A8, symBinAddr: 0x1000055A0, symSize: 0x44 }
  - { offsetInCU: 0xB9E6, offset: 0x1C6BA, size: 0x8, addend: 0x0, symName: __ZNSt3__19allocatorI4CardE9constructB8ue170006IS1_JRKS1_EEEvPT_DpOT0_, symObjAddr: 0x14EC, symBinAddr: 0x1000055E4, symSize: 0x28 }
  - { offsetInCU: 0xBA3D, offset: 0x1C711, size: 0x8, addend: 0x0, symName: __ZNSt3__117__compressed_pairIP4CardNS_9allocatorIS1_EEE6secondB8ue170006Ev, symObjAddr: 0x1514, symBinAddr: 0x10000560C, symSize: 0x24 }
  - { offsetInCU: 0xBA61, offset: 0x1C735, size: 0x8, addend: 0x0, symName: __ZNSt3__122__compressed_pair_elemINS_9allocatorI4CardEELi1ELb1EE5__getB8ue170006Ev, symObjAddr: 0x1538, symBinAddr: 0x100005630, symSize: 0x14 }
  - { offsetInCU: 0xBA86, offset: 0x1C75A, size: 0x8, addend: 0x0, symName: __ZNSt3__16vectorI4CardNS_9allocatorIS1_EEE21_ConstructTransactionD2B8ue170006Ev, symObjAddr: 0x154C, symBinAddr: 0x100005644, symSize: 0x20 }
  - { offsetInCU: 0xBAAF, offset: 0x1C783, size: 0x8, addend: 0x0, symName: __ZNKSt3__16vectorI4CardNS_9allocatorIS1_EEE11__recommendB8ue170006Em, symObjAddr: 0x156C, symBinAddr: 0x100005664, symSize: 0xB4 }
  - { offsetInCU: 0xBB03, offset: 0x1C7D7, size: 0x8, addend: 0x0, symName: __ZNSt3__114__split_bufferI4CardRNS_9allocatorIS1_EEEC1EmmS4_, symObjAddr: 0x1620, symBinAddr: 0x100005718, symSize: 0x44 }
  - { offsetInCU: 0xBB58, offset: 0x1C82C, size: 0x8, addend: 0x0, symName: __ZNSt3__114__split_bufferI4CardRNS_9allocatorIS1_EEED1Ev, symObjAddr: 0x1774, symBinAddr: 0x10000586C, symSize: 0x2C }
  - { offsetInCU: 0xBB83, offset: 0x1C857, size: 0x8, addend: 0x0, symName: __ZNKSt3__16vectorI4CardNS_9allocatorIS1_EEE8max_sizeEv, symObjAddr: 0x17A0, symBinAddr: 0x100005898, symSize: 0x60 }
  - { offsetInCU: 0xBBAA, offset: 0x1C87E, size: 0x8, addend: 0x0, symName: __ZNKSt3__16vectorI4CardNS_9allocatorIS1_EEE20__throw_length_errorB8ue170006Ev, symObjAddr: 0x1800, symBinAddr: 0x1000058F8, symSize: 0x1C }
  - { offsetInCU: 0xBBCE, offset: 0x1C8A2, size: 0x8, addend: 0x0, symName: __ZNKSt3__16vectorI4CardNS_9allocatorIS1_EEE8capacityB8ue170006Ev, symObjAddr: 0x181C, symBinAddr: 0x100005914, symSize: 0x40 }
  - { offsetInCU: 0xBBFC, offset: 0x1C8D0, size: 0x8, addend: 0x0, symName: __ZNSt3__116allocator_traitsINS_9allocatorI4CardEEE8max_sizeB8ue170006IS3_vEEmRKS3_, symObjAddr: 0x18B4, symBinAddr: 0x1000059AC, symSize: 0x24 }
  - { offsetInCU: 0xBC2A, offset: 0x1C8FE, size: 0x8, addend: 0x0, symName: __ZNKSt3__16vectorI4CardNS_9allocatorIS1_EEE7__allocB8ue170006Ev, symObjAddr: 0x18D8, symBinAddr: 0x1000059D0, symSize: 0x28 }
  - { offsetInCU: 0xBC62, offset: 0x1C936, size: 0x8, addend: 0x0, symName: __ZNKSt3__16__lessIvvEclB8ue170006ImmEEbRKT_RKT0_, symObjAddr: 0x1968, symBinAddr: 0x100005A4C, symSize: 0x34 }
  - { offsetInCU: 0xBCB5, offset: 0x1C989, size: 0x8, addend: 0x0, symName: __ZNKSt3__19allocatorI4CardE8max_sizeB8ue170006Ev, symObjAddr: 0x199C, symBinAddr: 0x100005A80, symSize: 0x14 }
  - { offsetInCU: 0xBCDA, offset: 0x1C9AE, size: 0x8, addend: 0x0, symName: __ZNKSt3__117__compressed_pairIP4CardNS_9allocatorIS1_EEE6secondB8ue170006Ev, symObjAddr: 0x19B0, symBinAddr: 0x100005A94, symSize: 0x24 }
  - { offsetInCU: 0xBCFE, offset: 0x1C9D2, size: 0x8, addend: 0x0, symName: __ZNKSt3__122__compressed_pair_elemINS_9allocatorI4CardEELi1ELb1EE5__getB8ue170006Ev, symObjAddr: 0x19D4, symBinAddr: 0x100005AB8, symSize: 0x14 }
  - { offsetInCU: 0xBD23, offset: 0x1C9F7, size: 0x8, addend: 0x0, symName: __ZNSt12length_errorC1B8ue170006EPKc, symObjAddr: 0x1A54, symBinAddr: 0x100005B30, symSize: 0x34 }
  - { offsetInCU: 0xBD59, offset: 0x1CA2D, size: 0x8, addend: 0x0, symName: __ZNSt12length_errorC2B8ue170006EPKc, symObjAddr: 0x1A88, symBinAddr: 0x100005B64, symSize: 0x4C }
  - { offsetInCU: 0xBD8F, offset: 0x1CA63, size: 0x8, addend: 0x0, symName: __ZNKSt3__16vectorI4CardNS_9allocatorIS1_EEE9__end_capB8ue170006Ev, symObjAddr: 0x1AD4, symBinAddr: 0x100005BB0, symSize: 0x28 }
  - { offsetInCU: 0xBDB3, offset: 0x1CA87, size: 0x8, addend: 0x0, symName: __ZNKSt3__117__compressed_pairIP4CardNS_9allocatorIS1_EEE5firstB8ue170006Ev, symObjAddr: 0x1AFC, symBinAddr: 0x100005BD8, symSize: 0x24 }
  - { offsetInCU: 0xBDD7, offset: 0x1CAAB, size: 0x8, addend: 0x0, symName: __ZNKSt3__122__compressed_pair_elemIP4CardLi0ELb0EE5__getB8ue170006Ev, symObjAddr: 0x1B20, symBinAddr: 0x100005BFC, symSize: 0x14 }
  - { offsetInCU: 0xBDFC, offset: 0x1CAD0, size: 0x8, addend: 0x0, symName: __ZNSt3__114__split_bufferI4CardRNS_9allocatorIS1_EEEC2EmmS4_, symObjAddr: 0x1B88, symBinAddr: 0x100005C64, symSize: 0xD4 }
  - { offsetInCU: 0xBE6E, offset: 0x1CB42, size: 0x8, addend: 0x0, symName: __ZNSt3__117__compressed_pairIP4CardRNS_9allocatorIS1_EEEC1B8ue170006IDnS5_EEOT_OT0_, symObjAddr: 0x1C5C, symBinAddr: 0x100005D38, symSize: 0x3C }
  - { offsetInCU: 0xBEC4, offset: 0x1CB98, size: 0x8, addend: 0x0, symName: __ZNSt3__114__split_bufferI4CardRNS_9allocatorIS1_EEE7__allocB8ue170006Ev, symObjAddr: 0x1CD8, symBinAddr: 0x100005DB4, symSize: 0x28 }
  - { offsetInCU: 0xBEE8, offset: 0x1CBBC, size: 0x8, addend: 0x0, symName: __ZNSt3__114__split_bufferI4CardRNS_9allocatorIS1_EEE9__end_capB8ue170006Ev, symObjAddr: 0x1D00, symBinAddr: 0x100005DDC, symSize: 0x28 }
  - { offsetInCU: 0xBF0C, offset: 0x1CBE0, size: 0x8, addend: 0x0, symName: __ZNSt3__117__compressed_pairIP4CardRNS_9allocatorIS1_EEEC2B8ue170006IDnS5_EEOT_OT0_, symObjAddr: 0x1D28, symBinAddr: 0x100005E04, symSize: 0x48 }
  - { offsetInCU: 0xBF62, offset: 0x1CC36, size: 0x8, addend: 0x0, symName: __ZNSt3__122__compressed_pair_elemIRNS_9allocatorI4CardEELi1ELb0EEC2B8ue170006IS4_vEEOT_, symObjAddr: 0x1D70, symBinAddr: 0x100005E4C, symSize: 0x20 }
  - { offsetInCU: 0xBFA3, offset: 0x1CC77, size: 0x8, addend: 0x0, symName: __ZNSt3__19allocatorI4CardE8allocateB8ue170006Em, symObjAddr: 0x1D90, symBinAddr: 0x100005E6C, symSize: 0x58 }
  - { offsetInCU: 0xBFD5, offset: 0x1CCA9, size: 0x8, addend: 0x0, symName: __ZNSt3__117__compressed_pairIP4CardRNS_9allocatorIS1_EEE6secondB8ue170006Ev, symObjAddr: 0x1EEC, symBinAddr: 0x100005FC8, symSize: 0x28 }
  - { offsetInCU: 0xBFF9, offset: 0x1CCCD, size: 0x8, addend: 0x0, symName: __ZNSt3__122__compressed_pair_elemIRNS_9allocatorI4CardEELi1ELb0EE5__getB8ue170006Ev, symObjAddr: 0x1F14, symBinAddr: 0x100005FF0, symSize: 0x18 }
  - { offsetInCU: 0xC01E, offset: 0x1CCF2, size: 0x8, addend: 0x0, symName: __ZNSt3__117__compressed_pairIP4CardRNS_9allocatorIS1_EEE5firstB8ue170006Ev, symObjAddr: 0x1F2C, symBinAddr: 0x100006008, symSize: 0x24 }
  - { offsetInCU: 0xC042, offset: 0x1CD16, size: 0x8, addend: 0x0, symName: __ZNKSt3__16vectorI4CardNS_9allocatorIS1_EEE17__annotate_deleteB8ue170006Ev, symObjAddr: 0x1F50, symBinAddr: 0x10000602C, symSize: 0xB8 }
  - { offsetInCU: 0xC066, offset: 0x1CD3A, size: 0x8, addend: 0x0, symName: __ZNSt3__116reverse_iteratorIP4CardEC1B8ue170006ES2_, symObjAddr: 0x2080, symBinAddr: 0x10000615C, symSize: 0x34 }
  - { offsetInCU: 0xC09C, offset: 0x1CD70, size: 0x8, addend: 0x0, symName: __ZNKSt3__116reverse_iteratorIP4CardE4baseB8ue170006Ev, symObjAddr: 0x20B4, symBinAddr: 0x100006190, symSize: 0x18 }
  - { offsetInCU: 0xC0C1, offset: 0x1CD95, size: 0x8, addend: 0x0, symName: __ZNKSt3__16vectorI4CardNS_9allocatorIS1_EEE14__annotate_newB8ue170006Em, symObjAddr: 0x2108, symBinAddr: 0x1000061E4, symSize: 0xAC }
  - { offsetInCU: 0xC0F4, offset: 0x1CDC8, size: 0x8, addend: 0x0, symName: __ZNKSt3__16vectorI4CardNS_9allocatorIS1_EEE31__annotate_contiguous_containerB8ue170006EPKvS6_S6_S6_, symObjAddr: 0x21B4, symBinAddr: 0x100006290, symSize: 0x20 }
  - { offsetInCU: 0xC149, offset: 0x1CE1D, size: 0x8, addend: 0x0, symName: __ZNKSt3__16vectorI4CardNS_9allocatorIS1_EEE4dataB8ue170006Ev, symObjAddr: 0x21D4, symBinAddr: 0x1000062B0, symSize: 0x28 }
  - { offsetInCU: 0xC190, offset: 0x1CE64, size: 0x8, addend: 0x0, symName: __ZNKSt3__111__move_loopINS_17_ClassicAlgPolicyEEclB8ue170006INS_16reverse_iteratorIP4CardEES7_S7_EENS_4pairIT_T1_EES9_T0_SA_, symObjAddr: 0x24EC, symBinAddr: 0x1000065C8, symSize: 0xA0 }
  - { offsetInCU: 0xC1FE, offset: 0x1CED2, size: 0x8, addend: 0x0, symName: __ZNSt3__18_IterOpsINS_17_ClassicAlgPolicyEE11__iter_moveB8ue170006IRNS_16reverse_iteratorIP4CardEEEENS_9enable_ifIXsr12is_referenceIDTdeclsr3stdE7declvalIRT_EEEEE5valueEDTclsr3stdE4movedeclsr3stdE7declvalISB_EEEEE4typeEOSA_, symObjAddr: 0x2720, symBinAddr: 0x1000067FC, symSize: 0x28 }
  - { offsetInCU: 0xC22A, offset: 0x1CEFE, size: 0x8, addend: 0x0, symName: __ZNKSt3__116reverse_iteratorIP4CardEdeB8ue170006Ev, symObjAddr: 0x2748, symBinAddr: 0x100006824, symSize: 0x28 }
  - { offsetInCU: 0xC25D, offset: 0x1CF31, size: 0x8, addend: 0x0, symName: __ZNSt3__116reverse_iteratorIP4CardEppB8ue170006Ev, symObjAddr: 0x2770, symBinAddr: 0x10000684C, symSize: 0x20 }
  - { offsetInCU: 0xC282, offset: 0x1CF56, size: 0x8, addend: 0x0, symName: __ZNSt3__18_IterOpsINS_17_ClassicAlgPolicyEE25__validate_iter_referenceB8ue170006IRNS_16reverse_iteratorIP4CardEEEEvv, symObjAddr: 0x2790, symBinAddr: 0x10000686C, symSize: 0x4 }
  - { offsetInCU: 0xC2A0, offset: 0x1CF74, size: 0x8, addend: 0x0, symName: __ZNSt3__118__unwrap_iter_implINS_16reverse_iteratorIP4CardEELb0EE8__unwrapB8ue170006ES4_, symObjAddr: 0x2794, symBinAddr: 0x100006870, symSize: 0x24 }
  - { offsetInCU: 0xC2C8, offset: 0x1CF9C, size: 0x8, addend: 0x0, symName: __ZNSt3__14pairINS_16reverse_iteratorIP4CardEES4_EC1B8ue170006IS4_S4_LPv0EEEOT_OT0_, symObjAddr: 0x27B8, symBinAddr: 0x100006894, symSize: 0x3C }
  - { offsetInCU: 0xC325, offset: 0x1CFF9, size: 0x8, addend: 0x0, symName: __ZNSt3__14pairINS_16reverse_iteratorIP4CardEES4_EC2B8ue170006IS4_S4_LPv0EEEOT_OT0_, symObjAddr: 0x27F4, symBinAddr: 0x1000068D0, symSize: 0x34 }
  - { offsetInCU: 0xC383, offset: 0x1D057, size: 0x8, addend: 0x0, symName: __ZNSt3__118__unwrap_iter_implINS_16reverse_iteratorIP4CardEELb0EE8__rewrapB8ue170006ES4_S4_, symObjAddr: 0x2828, symBinAddr: 0x100006904, symSize: 0x2C }
  - { offsetInCU: 0xC3B1, offset: 0x1D085, size: 0x8, addend: 0x0, symName: __ZNSt3__116reverse_iteratorIP4CardEC2B8ue170006ES2_, symObjAddr: 0x2854, symBinAddr: 0x100006930, symSize: 0x28 }
  - { offsetInCU: 0xC3E8, offset: 0x1D0BC, size: 0x8, addend: 0x0, symName: __ZNSt3__114__split_bufferI4CardRNS_9allocatorIS1_EEED2Ev, symObjAddr: 0x287C, symBinAddr: 0x100006958, symSize: 0x8C }
  - { offsetInCU: 0xC413, offset: 0x1D0E7, size: 0x8, addend: 0x0, symName: __ZNSt3__114__split_bufferI4CardRNS_9allocatorIS1_EEE5clearB8ue170006Ev, symObjAddr: 0x2908, symBinAddr: 0x1000069E4, symSize: 0x28 }
  - { offsetInCU: 0xC437, offset: 0x1D10B, size: 0x8, addend: 0x0, symName: __ZNSt3__116allocator_traitsINS_9allocatorI4CardEEE10deallocateB8ue170006ERS3_PS2_m, symObjAddr: 0x2930, symBinAddr: 0x100006A0C, symSize: 0x34 }
  - { offsetInCU: 0xC479, offset: 0x1D14D, size: 0x8, addend: 0x0, symName: __ZNKSt3__114__split_bufferI4CardRNS_9allocatorIS1_EEE8capacityB8ue170006Ev, symObjAddr: 0x2964, symBinAddr: 0x100006A40, symSize: 0x40 }
  - { offsetInCU: 0xC49D, offset: 0x1D171, size: 0x8, addend: 0x0, symName: __ZNSt3__114__split_bufferI4CardRNS_9allocatorIS1_EEE17__destruct_at_endB8ue170006EPS1_, symObjAddr: 0x29A4, symBinAddr: 0x100006A80, symSize: 0x2C }
  - { offsetInCU: 0xC4CF, offset: 0x1D1A3, size: 0x8, addend: 0x0, symName: __ZNSt3__114__split_bufferI4CardRNS_9allocatorIS1_EEE17__destruct_at_endB8ue170006EPS1_NS_17integral_constantIbLb0EEE, symObjAddr: 0x29D0, symBinAddr: 0x100006AAC, symSize: 0x80 }
  - { offsetInCU: 0xC50F, offset: 0x1D1E3, size: 0x8, addend: 0x0, symName: __ZNSt3__116allocator_traitsINS_9allocatorI4CardEEE7destroyB8ue170006IS2_vEEvRS3_PT_, symObjAddr: 0x2A50, symBinAddr: 0x100006B2C, symSize: 0x2C }
  - { offsetInCU: 0xC54C, offset: 0x1D220, size: 0x8, addend: 0x0, symName: __ZNSt3__19allocatorI4CardE7destroyB8ue170006EPS1_, symObjAddr: 0x2A7C, symBinAddr: 0x100006B58, symSize: 0x14 }
  - { offsetInCU: 0xC57F, offset: 0x1D253, size: 0x8, addend: 0x0, symName: __ZNSt3__19allocatorI4CardE10deallocateB8ue170006EPS1_m, symObjAddr: 0x2A90, symBinAddr: 0x100006B6C, symSize: 0x40 }
  - { offsetInCU: 0xC5BF, offset: 0x1D293, size: 0x8, addend: 0x0, symName: __ZNKSt3__114__split_bufferI4CardRNS_9allocatorIS1_EEE9__end_capB8ue170006Ev, symObjAddr: 0x2BD8, symBinAddr: 0x100006CB4, symSize: 0x28 }
  - { offsetInCU: 0xC5E3, offset: 0x1D2B7, size: 0x8, addend: 0x0, symName: __ZNKSt3__117__compressed_pairIP4CardRNS_9allocatorIS1_EEE5firstB8ue170006Ev, symObjAddr: 0x2C00, symBinAddr: 0x100006CDC, symSize: 0x24 }
  - { offsetInCU: 0xC607, offset: 0x1D2DB, size: 0x8, addend: 0x0, symName: __ZNKSt3__16vectorI4CardNS_9allocatorIS1_EEEixB8ue170006Em, symObjAddr: 0x2C24, symBinAddr: 0x100006D00, symSize: 0x24 }
  - { offsetInCU: 0xC63D, offset: 0x1D311, size: 0x8, addend: 0x0, symName: __ZNSt3__16vectorI4CardNS_9allocatorIS1_EEEixB8ue170006Em, symObjAddr: 0x2C48, symBinAddr: 0x100006D24, symSize: 0x24 }
  - { offsetInCU: 0xC673, offset: 0x1D347, size: 0x8, addend: 0x0, symName: __ZNSt3__16vectorI4CardNS_9allocatorIS1_EEE5eraseB8ue170006ENS_11__wrap_iterIPKS1_EE, symObjAddr: 0x2C6C, symBinAddr: 0x100006D48, symSize: 0x94 }
  - { offsetInCU: 0xC6C7, offset: 0x1D39B, size: 0x8, addend: 0x0, symName: __ZNSt3__16vectorI4CardNS_9allocatorIS1_EEE5beginB8ue170006Ev, symObjAddr: 0x2D00, symBinAddr: 0x100006DDC, symSize: 0x30 }
  - { offsetInCU: 0xC6EE, offset: 0x1D3C2, size: 0x8, addend: 0x0, symName: __ZNKSt3__111__wrap_iterIP4CardEplB8ue170006El, symObjAddr: 0x2D30, symBinAddr: 0x100006E0C, symSize: 0x3C }
  - { offsetInCU: 0xC738, offset: 0x1D40C, size: 0x8, addend: 0x0, symName: __ZNSt3__111__wrap_iterIPK4CardEC1B8ue170006IPS1_EERKNS0_IT_EEPNS_9enable_ifIXsr14is_convertibleIS7_S3_EE5valueEvE4typeE, symObjAddr: 0x2D6C, symBinAddr: 0x100006E48, symSize: 0x3C }
  - { offsetInCU: 0xC782, offset: 0x1D456, size: 0x8, addend: 0x0, symName: __ZNKSt3__16vectorI4CardNS_9allocatorIS1_EEE6cbeginB8ue170006Ev, symObjAddr: 0x2DF0, symBinAddr: 0x100006ECC, symSize: 0x2C }
  - { offsetInCU: 0xC7A6, offset: 0x1D47A, size: 0x8, addend: 0x0, symName: __ZNSt3__16vectorI4CardNS_9allocatorIS1_EEE17__destruct_at_endB8ue170006EPS1_, symObjAddr: 0x2E1C, symBinAddr: 0x100006EF8, symSize: 0x4C }
  - { offsetInCU: 0xC7E8, offset: 0x1D4BC, size: 0x8, addend: 0x0, symName: __ZNSt3__16vectorI4CardNS_9allocatorIS1_EEE11__make_iterB8ue170006EPS1_, symObjAddr: 0x2EA8, symBinAddr: 0x100006F84, symSize: 0x30 }
  - { offsetInCU: 0xC81B, offset: 0x1D4EF, size: 0x8, addend: 0x0, symName: __ZNKSt3__111__wrap_iterIPK4CardE4baseB8ue170006Ev, symObjAddr: 0x2ED8, symBinAddr: 0x100006FB4, symSize: 0x18 }
  - { offsetInCU: 0xC840, offset: 0x1D514, size: 0x8, addend: 0x0, symName: __ZNKSt3__16vectorI4CardNS_9allocatorIS1_EEE5beginB8ue170006Ev, symObjAddr: 0x2EF0, symBinAddr: 0x100006FCC, symSize: 0x30 }
  - { offsetInCU: 0xC867, offset: 0x1D53B, size: 0x8, addend: 0x0, symName: __ZNKSt3__16vectorI4CardNS_9allocatorIS1_EEE11__make_iterB8ue170006EPKS1_, symObjAddr: 0x2F20, symBinAddr: 0x100006FFC, symSize: 0x30 }
  - { offsetInCU: 0xC89A, offset: 0x1D56E, size: 0x8, addend: 0x0, symName: __ZNSt3__111__wrap_iterIPK4CardEC1B8ue170006ES3_, symObjAddr: 0x2F50, symBinAddr: 0x10000702C, symSize: 0x34 }
  - { offsetInCU: 0xC8D0, offset: 0x1D5A4, size: 0x8, addend: 0x0, symName: __ZNSt3__111__wrap_iterIPK4CardEC2B8ue170006ES3_, symObjAddr: 0x2F84, symBinAddr: 0x100007060, symSize: 0x20 }
  - { offsetInCU: 0xC907, offset: 0x1D5DB, size: 0x8, addend: 0x0, symName: __ZNSt3__16vectorI4CardNS_9allocatorIS1_EEE22__base_destruct_at_endB8ue170006EPS1_, symObjAddr: 0x2FA4, symBinAddr: 0x100007080, symSize: 0x8C }
  - { offsetInCU: 0xC949, offset: 0x1D61D, size: 0x8, addend: 0x0, symName: __ZNKSt3__16vectorI4CardNS_9allocatorIS1_EEE17__annotate_shrinkB8ue170006Em, symObjAddr: 0x3030, symBinAddr: 0x10000710C, symSize: 0xB4 }
  - { offsetInCU: 0xC99F, offset: 0x1D673, size: 0x8, addend: 0x0, symName: __ZNKSt3__114__move_trivialclB8ue170006I4CardS2_Li0EEENS_4pairIPT_PT0_EES5_S5_S7_, symObjAddr: 0x3280, symBinAddr: 0x10000735C, symSize: 0x48 }
  - { offsetInCU: 0xCA0B, offset: 0x1D6DF, size: 0x8, addend: 0x0, symName: __ZNSt3__14pairIP4CardS2_EC1B8ue170006IRS2_S2_LPv0EEEOT_OT0_, symObjAddr: 0x34A8, symBinAddr: 0x100007584, symSize: 0x3C }
  - { offsetInCU: 0xCA68, offset: 0x1D73C, size: 0x8, addend: 0x0, symName: __ZNSt3__14pairIP4CardS2_EC2B8ue170006IRS2_S2_LPv0EEEOT_OT0_, symObjAddr: 0x34E4, symBinAddr: 0x1000075C0, symSize: 0x34 }
  - { offsetInCU: 0xCAC6, offset: 0x1D79A, size: 0x8, addend: 0x0, symName: __ZNSt3__118__unwrap_iter_implIP4CardLb1EE8__unwrapB8ue170006ES2_, symObjAddr: 0x3518, symBinAddr: 0x1000075F4, symSize: 0x24 }
  - { offsetInCU: 0xCAE9, offset: 0x1D7BD, size: 0x8, addend: 0x0, symName: __ZNSt3__14pairIP4CardS2_EC1B8ue170006IS2_S2_LPv0EEEOT_OT0_, symObjAddr: 0x353C, symBinAddr: 0x100007618, symSize: 0x3C }
  - { offsetInCU: 0xCB46, offset: 0x1D81A, size: 0x8, addend: 0x0, symName: __ZNSt3__14pairIP4CardS2_EC2B8ue170006IS2_S2_LPv0EEEOT_OT0_, symObjAddr: 0x3578, symBinAddr: 0x100007654, symSize: 0x34 }
  - { offsetInCU: 0xCBA4, offset: 0x1D878, size: 0x8, addend: 0x0, symName: __ZNSt3__118__unwrap_iter_implIP4CardLb1EE8__rewrapB8ue170006ES2_S2_, symObjAddr: 0x35AC, symBinAddr: 0x100007688, symSize: 0x50 }
  - { offsetInCU: 0xCBD5, offset: 0x1D8A9, size: 0x8, addend: 0x0, symName: __ZNSt3__111__wrap_iterIP4CardEC1B8ue170006ES2_, symObjAddr: 0x35FC, symBinAddr: 0x1000076D8, symSize: 0x34 }
  - { offsetInCU: 0xCC0B, offset: 0x1D8DF, size: 0x8, addend: 0x0, symName: __ZNSt3__111__wrap_iterIP4CardEC2B8ue170006ES2_, symObjAddr: 0x3630, symBinAddr: 0x10000770C, symSize: 0x20 }
  - { offsetInCU: 0xCC42, offset: 0x1D916, size: 0x8, addend: 0x0, symName: __ZNSt3__111__wrap_iterIP4CardEpLB8ue170006El, symObjAddr: 0x3650, symBinAddr: 0x10000772C, symSize: 0x28 }
  - { offsetInCU: 0xCC75, offset: 0x1D949, size: 0x8, addend: 0x0, symName: __ZNSt3__111__wrap_iterIPK4CardEC2B8ue170006IPS1_EERKNS0_IT_EEPNS_9enable_ifIXsr14is_convertibleIS7_S3_EE5valueEvE4typeE, symObjAddr: 0x3678, symBinAddr: 0x100007754, symSize: 0x40 }
  - { offsetInCU: 0xCCBF, offset: 0x1D993, size: 0x8, addend: 0x0, symName: __ZNKSt3__111__wrap_iterIP4CardE4baseB8ue170006Ev, symObjAddr: 0x36B8, symBinAddr: 0x100007794, symSize: 0x18 }
  - { offsetInCU: 0xCCE4, offset: 0x1D9B8, size: 0x8, addend: 0x0, symName: __ZN12SimplePlayerD2Ev, symObjAddr: 0x36D0, symBinAddr: 0x1000077AC, symSize: 0x54 }
  - { offsetInCU: 0xCD0E, offset: 0x1D9E2, size: 0x8, addend: 0x0, symName: __ZNSt3__16vectorI4CardNS_9allocatorIS1_EEED1B8ue170006Ev, symObjAddr: 0x3724, symBinAddr: 0x100007800, symSize: 0x2C }
  - { offsetInCU: 0xCD36, offset: 0x1DA0A, size: 0x8, addend: 0x0, symName: __ZNSt3__16vectorI4CardNS_9allocatorIS1_EEED2B8ue170006Ev, symObjAddr: 0x3750, symBinAddr: 0x10000782C, symSize: 0x44 }
  - { offsetInCU: 0xCD5E, offset: 0x1DA32, size: 0x8, addend: 0x0, symName: __ZNSt3__16vectorI4CardNS_9allocatorIS1_EEE16__destroy_vectorC1B8ue170006ERS4_, symObjAddr: 0x3794, symBinAddr: 0x100007870, symSize: 0x34 }
  - { offsetInCU: 0xCD95, offset: 0x1DA69, size: 0x8, addend: 0x0, symName: __ZNSt3__16vectorI4CardNS_9allocatorIS1_EEE16__destroy_vectorclB8ue170006Ev, symObjAddr: 0x37C8, symBinAddr: 0x1000078A4, symSize: 0x90 }
  - { offsetInCU: 0xCDB9, offset: 0x1DA8D, size: 0x8, addend: 0x0, symName: __ZNSt3__16vectorI4CardNS_9allocatorIS1_EEE16__destroy_vectorC2B8ue170006ERS4_, symObjAddr: 0x3858, symBinAddr: 0x100007934, symSize: 0x20 }
  - { offsetInCU: 0xCDF1, offset: 0x1DAC5, size: 0x8, addend: 0x0, symName: __ZNSt3__16vectorI4CardNS_9allocatorIS1_EEE7__clearB8ue170006Ev, symObjAddr: 0x3878, symBinAddr: 0x100007954, symSize: 0x28 }
  - { offsetInCU: 0xCE15, offset: 0x1DAE9, size: 0x8, addend: 0x0, symName: __ZN11HumanPlayerC2ENSt3__112basic_stringIcNS0_11char_traitsIcEENS0_9allocatorIcEEEE, symObjAddr: 0x38A0, symBinAddr: 0x10000797C, symSize: 0x90 }
  - { offsetInCU: 0xCE4C, offset: 0x1DB20, size: 0x8, addend: 0x0, symName: __ZNK11HumanPlayer8get_nameEv, symObjAddr: 0x3930, symBinAddr: 0x100007A0C, symSize: 0x18 }
  - { offsetInCU: 0xCE71, offset: 0x1DB45, size: 0x8, addend: 0x0, symName: __ZN11HumanPlayer8add_cardERK4Card, symObjAddr: 0x3948, symBinAddr: 0x100007A24, symSize: 0x60 }
  - { offsetInCU: 0xCEA3, offset: 0x1DB77, size: 0x8, addend: 0x0, symName: __ZNK11HumanPlayer10make_trumpERK4CardbiR4Suit, symObjAddr: 0x39A8, symBinAddr: 0x100007A84, symSize: 0x128 }
  - { offsetInCU: 0xCF0D, offset: 0x1DBE1, size: 0x8, addend: 0x0, symName: __ZN11HumanPlayer15add_and_discardERK4Card, symObjAddr: 0x3AD0, symBinAddr: 0x100007BAC, symSize: 0xFC }
  - { offsetInCU: 0xCF4F, offset: 0x1DC23, size: 0x8, addend: 0x0, symName: __ZN11HumanPlayer9lead_cardE4Suit, symObjAddr: 0x3BCC, symBinAddr: 0x100007CA8, symSize: 0xCC }
  - { offsetInCU: 0xCFA0, offset: 0x1DC74, size: 0x8, addend: 0x0, symName: __ZN11HumanPlayer9play_cardERK4Card4Suit, symObjAddr: 0x3C98, symBinAddr: 0x100007D74, symSize: 0xD0 }
  - { offsetInCU: 0xD000, offset: 0x1DCD4, size: 0x8, addend: 0x0, symName: __ZN11HumanPlayerD1Ev, symObjAddr: 0x3D68, symBinAddr: 0x100007E44, symSize: 0x2C }
  - { offsetInCU: 0xD02A, offset: 0x1DCFE, size: 0x8, addend: 0x0, symName: __ZN11HumanPlayerD0Ev, symObjAddr: 0x3D94, symBinAddr: 0x100007E70, symSize: 0x30 }
  - { offsetInCU: 0xD054, offset: 0x1DD28, size: 0x8, addend: 0x0, symName: __ZNSt3__16vectorI4CardNS_9allocatorIS1_EEE3endB8ue170006Ev, symObjAddr: 0x3E00, symBinAddr: 0x100007EDC, symSize: 0x30 }
  - { offsetInCU: 0xD07B, offset: 0x1DD4F, size: 0x8, addend: 0x0, symName: __ZNKSt3__16__lessIvvEclB8ue170006I4CardS3_EEbRKT_RKT0_, symObjAddr: 0x4490, symBinAddr: 0x10000856C, symSize: 0x34 }
  - { offsetInCU: 0xD0CD, offset: 0x1DDA1, size: 0x8, addend: 0x0, symName: __ZNSt3__18_IterOpsINS_17_ClassicAlgPolicyEE9iter_swapB8ue170006IRP4CardS6_EEvOT_OT0_, symObjAddr: 0x44C4, symBinAddr: 0x1000085A0, symSize: 0x34 }
  - { offsetInCU: 0xD110, offset: 0x1DDE4, size: 0x8, addend: 0x0, symName: __ZNSt3__18_IterOpsINS_17_ClassicAlgPolicyEE9iter_swapB8ue170006IRP4CardS5_EEvOT_OT0_, symObjAddr: 0x4A0C, symBinAddr: 0x100008AE8, symSize: 0x34 }
  - { offsetInCU: 0xD153, offset: 0x1DE27, size: 0x8, addend: 0x0, symName: __ZNSt3__18_IterOpsINS_17_ClassicAlgPolicyEE11__iter_moveB8ue170006IRP4CardEENS_9enable_ifIXsr12is_referenceIDTdeclsr3stdE7declvalIRT_EEEEE5valueEDTclsr3stdE4movedeclsr3stdE7declvalIS9_EEEEE4typeEOS8_, symObjAddr: 0x56B0, symBinAddr: 0x10000978C, symSize: 0x28 }
  - { offsetInCU: 0xD17F, offset: 0x1DE53, size: 0x8, addend: 0x0, symName: __ZNSt3__18_IterOpsINS_17_ClassicAlgPolicyEE25__validate_iter_referenceB8ue170006IRP4CardEEvv, symObjAddr: 0x56D8, symBinAddr: 0x1000097B4, symSize: 0x4 }
  - { offsetInCU: 0xD19D, offset: 0x1DE71, size: 0x8, addend: 0x0, symName: __ZNSt3__18_IterOpsINS_17_ClassicAlgPolicyEE4nextB8ue170006IP4CardEET_S6_S6_, symObjAddr: 0x56DC, symBinAddr: 0x1000097B8, symSize: 0x18 }
  - { offsetInCU: 0xD1D4, offset: 0x1DEA8, size: 0x8, addend: 0x0, symName: __ZNSt3__18_IterOpsINS_17_ClassicAlgPolicyEE9iter_swapB8ue170006IP4CardS5_EEvOT_OT0_, symObjAddr: 0x6628, symBinAddr: 0x10000A704, symSize: 0x34 }
  - { offsetInCU: 0xD235, offset: 0x1DF09, size: 0x8, addend: 0x0, symName: __ZNSt3__14pairIP4CardbEC1B8ue170006IRS2_RbLPv0EEEOT_OT0_, symObjAddr: 0x6678, symBinAddr: 0x10000A754, symSize: 0x3C }
  - { offsetInCU: 0xD292, offset: 0x1DF66, size: 0x8, addend: 0x0, symName: __ZNSt3__14pairIP4CardbEC2B8ue170006IRS2_RbLPv0EEEOT_OT0_, symObjAddr: 0x66B4, symBinAddr: 0x10000A790, symSize: 0x38 }
  - { offsetInCU: 0xD2F0, offset: 0x1DFC4, size: 0x8, addend: 0x0, symName: __ZNSt3__118__unwrap_iter_implINS_11__wrap_iterIP4CardEELb1EE8__unwrapB8ue170006ES4_, symObjAddr: 0x66EC, symBinAddr: 0x10000A7C8, symSize: 0x28 }
  - { offsetInCU: 0xD318, offset: 0x1DFEC, size: 0x8, addend: 0x0, symName: __ZNSt3__119__to_address_helperINS_11__wrap_iterIP4CardEEvE6__callB8ue170006ERKS4_, symObjAddr: 0x6738, symBinAddr: 0x10000A814, symSize: 0x30 }
  - { offsetInCU: 0xD33B, offset: 0x1E00F, size: 0x8, addend: 0x0, symName: __ZNSt3__114pointer_traitsINS_11__wrap_iterIP4CardEEE10to_addressB8ue170006ES4_, symObjAddr: 0x6768, symBinAddr: 0x10000A844, symSize: 0x2C }
  - { offsetInCU: 0xD35E, offset: 0x1E032, size: 0x8, addend: 0x0, symName: __ZNK11HumanPlayer10print_handEv, symObjAddr: 0x6794, symBinAddr: 0x10000A870, symSize: 0xE0 }
  - { offsetInCU: 0xD3BC, offset: 0x1E090, size: 0x8, addend: 0x0, symName: __ZN11HumanPlayerD2Ev, symObjAddr: 0x7CE0, symBinAddr: 0x10000A984, symSize: 0x54 }
  - { offsetInCU: 0xD3E6, offset: 0x1E0BA, size: 0x8, addend: 0x0, symName: __ZNKSt3__112basic_stringIcNS_11char_traitsIcEENS_9allocatorIcEEE4dataB8ue170006Ev, symObjAddr: 0x7D34, symBinAddr: 0x10000A9D8, symSize: 0x28 }
  - { offsetInCU: 0xD40A, offset: 0x1E0DE, size: 0x8, addend: 0x0, symName: __ZNKSt3__112basic_stringIcNS_11char_traitsIcEENS_9allocatorIcEEE13__get_pointerB8ue170006Ev, symObjAddr: 0x7DC4, symBinAddr: 0x10000AA14, symSize: 0x54 }
  - { offsetInCU: 0xD42E, offset: 0x1E102, size: 0x8, addend: 0x0, symName: __ZNKSt3__112basic_stringIcNS_11char_traitsIcEENS_9allocatorIcEEE18__get_long_pointerB8ue170006Ev, symObjAddr: 0x7E18, symBinAddr: 0x10000AA68, symSize: 0x28 }
  - { offsetInCU: 0xD452, offset: 0x1E126, size: 0x8, addend: 0x0, symName: __ZNKSt3__112basic_stringIcNS_11char_traitsIcEENS_9allocatorIcEEE19__get_short_pointerB8ue170006Ev, symObjAddr: 0x7E40, symBinAddr: 0x10000AA90, symSize: 0x28 }
  - { offsetInCU: 0xD476, offset: 0x1E14A, size: 0x8, addend: 0x0, symName: __ZNSt3__114pointer_traitsIPKcE10pointer_toB8ue170006ERS1_, symObjAddr: 0x7E68, symBinAddr: 0x10000AAB8, symSize: 0x14 }
  - { offsetInCU: 0xCB24, offset: 0x2AD62, size: 0x8, addend: 0x0, symName: __ZNSt3__14endlB8ue170006IcNS_11char_traitsIcEEEERNS_13basic_ostreamIT_T0_EES7_, symObjAddr: 0x828, symBinAddr: 0x10000B2AC, symSize: 0x58 }
  - { offsetInCU: 0xDBC4, offset: 0x2BE02, size: 0x8, addend: 0x0, symName: __ZNSt3__122__make_exception_guardB8ue170006INS_6vectorIP6PlayerNS_9allocatorIS3_EEE16__destroy_vectorEEENS_28__exception_guard_exceptionsIT_EES9_, symObjAddr: 0x2EE8, symBinAddr: 0x10000CBD0, symSize: 0x40 }
  - { offsetInCU: 0xDBF9, offset: 0x2BE37, size: 0x8, addend: 0x0, symName: __ZNSt3__119__allocate_at_leastB8ue170006INS_9allocatorIP6PlayerEEEENS_19__allocation_resultINS_16allocator_traitsIT_E7pointerEEERS7_m, symObjAddr: 0x31D0, symBinAddr: 0x10000CEB8, symSize: 0x40 }
  - { offsetInCU: 0xDC3C, offset: 0x2BE7A, size: 0x8, addend: 0x0, symName: __ZNSt3__112__to_addressB8ue170006IP6PlayerEEPT_S4_, symObjAddr: 0x374C, symBinAddr: 0x10000D17C, symSize: 0x14 }
  - { offsetInCU: 0xDC71, offset: 0x2BEAF, size: 0x8, addend: 0x0, symName: __ZNSt3__130__uninitialized_allocator_copyB8ue170006INS_9allocatorIP6PlayerEEPS3_S5_S5_EET2_RT_T0_T1_S6_, symObjAddr: 0x37FC, symBinAddr: 0x10000D22C, symSize: 0x80 }
  - { offsetInCU: 0xDD0E, offset: 0x2BF4C, size: 0x8, addend: 0x0, symName: __ZNSt3__114__unwrap_rangeB8ue170006IPP6PlayerS3_EENS_4pairIT0_S5_EET_S7_, symObjAddr: 0x38EC, symBinAddr: 0x10000D31C, symSize: 0x60 }
  - { offsetInCU: 0xDD5A, offset: 0x2BF98, size: 0x8, addend: 0x0, symName: __ZNSt3__135__uninitialized_allocator_copy_implB8ue170006INS_9allocatorIP6PlayerEES3_S3_S3_LPv0EEEPT2_RT_PT0_SB_S7_, symObjAddr: 0x394C, symBinAddr: 0x10000D37C, symSize: 0x38 }
  - { offsetInCU: 0xDDDD, offset: 0x2C01B, size: 0x8, addend: 0x0, symName: __ZNSt3__113__unwrap_iterB8ue170006IPP6PlayerNS_18__unwrap_iter_implIS3_Lb1EEELi0EEEDTclsrT0_8__unwrapclsr3stdE7declvalIT_EEEES7_, symObjAddr: 0x3984, symBinAddr: 0x10000D3B4, symSize: 0x24 }
  - { offsetInCU: 0xDE22, offset: 0x2C060, size: 0x8, addend: 0x0, symName: __ZNSt3__113__rewrap_iterB8ue170006IPP6PlayerS3_NS_18__unwrap_iter_implIS3_Lb1EEEEET_S6_T0_, symObjAddr: 0x39A8, symBinAddr: 0x10000D3D8, symSize: 0x3C }
  - { offsetInCU: 0xDE77, offset: 0x2C0B5, size: 0x8, addend: 0x0, symName: __ZNSt3__19make_pairB8ue170006IPP6PlayerS3_EENS_4pairINS_18__unwrap_ref_decayIT_E4typeENS5_IT0_E4typeEEEOS6_OS9_, symObjAddr: 0x39E4, symBinAddr: 0x10000D414, symSize: 0x38 }
  - { offsetInCU: 0xDFCB, offset: 0x2C209, size: 0x8, addend: 0x0, symName: __ZNSt3__14copyB8ue170006IPP6PlayerS3_EET0_T_S5_S4_, symObjAddr: 0x3A8C, symBinAddr: 0x10000D4BC, symSize: 0x40 }
  - { offsetInCU: 0xE025, offset: 0x2C263, size: 0x8, addend: 0x0, symName: __ZNSt3__16__copyB8ue170006INS_17_ClassicAlgPolicyEPP6PlayerS4_S4_EENS_4pairIT0_T2_EES6_T1_S7_, symObjAddr: 0x3ACC, symBinAddr: 0x10000D4FC, symSize: 0x44 }
  - { offsetInCU: 0xE091, offset: 0x2C2CF, size: 0x8, addend: 0x0, symName: __ZNSt3__123__dispatch_copy_or_moveB8ue170006INS_17_ClassicAlgPolicyENS_11__copy_loopIS1_EENS_14__copy_trivialEPP6PlayerS7_S7_EENS_4pairIT2_T4_EES9_T3_SA_, symObjAddr: 0x3B10, symBinAddr: 0x10000D540, symSize: 0x44 }
  - { offsetInCU: 0xE10F, offset: 0x2C34D, size: 0x8, addend: 0x0, symName: __ZNSt3__121__unwrap_and_dispatchB8ue170006INS_10__overloadINS_11__copy_loopINS_17_ClassicAlgPolicyEEENS_14__copy_trivialEEEPP6PlayerS9_S9_Li0EEENS_4pairIT0_T2_EESB_T1_SC_, symObjAddr: 0x3B54, symBinAddr: 0x10000D584, symSize: 0xB4 }
  - { offsetInCU: 0xE1E5, offset: 0x2C423, size: 0x8, addend: 0x0, symName: __ZNSt3__114__rewrap_rangeB8ue170006IPP6PlayerS3_EET_S4_T0_, symObjAddr: 0x3C50, symBinAddr: 0x10000D680, symSize: 0x2C }
  - { offsetInCU: 0xE231, offset: 0x2C46F, size: 0x8, addend: 0x0, symName: __ZNSt3__119__copy_trivial_implB8ue170006IP6PlayerS2_EENS_4pairIPT_PT0_EES5_S5_S7_, symObjAddr: 0x3C7C, symBinAddr: 0x10000D6AC, symSize: 0x80 }
  - { offsetInCU: 0xE299, offset: 0x2C4D7, size: 0x8, addend: 0x0, symName: __ZNSt3__119__constexpr_memmoveB8ue170006IP6PlayerS2_Li0EEEPT_S4_PT0_NS_15__element_countE, symObjAddr: 0x3CFC, symBinAddr: 0x10000D72C, symSize: 0x64 }
  - { offsetInCU: 0xE308, offset: 0x2C546, size: 0x8, addend: 0x0, symName: __ZNSt3__19make_pairB8ue170006IRPP6PlayerS3_EENS_4pairINS_18__unwrap_ref_decayIT_E4typeENS6_IT0_E4typeEEEOS7_OSA_, symObjAddr: 0x3D60, symBinAddr: 0x10000D790, symSize: 0x38 }
  - { offsetInCU: 0xE3AA, offset: 0x2C5E8, size: 0x8, addend: 0x0, symName: __ZNSt3__142__uninitialized_allocator_move_if_noexceptB8ue170006INS_9allocatorIP6PlayerEENS_16reverse_iteratorIPS3_EES7_S3_vEET1_RT_T0_SB_S8_, symObjAddr: 0x4CA0, symBinAddr: 0x10000E3E0, symSize: 0x78 }
  - { offsetInCU: 0xE428, offset: 0x2C666, size: 0x8, addend: 0x0, symName: __ZNSt3__14swapB8ue170006IPP6PlayerEENS_9enable_ifIXaasr21is_move_constructibleIT_EE5valuesr18is_move_assignableIS5_EE5valueEvE4typeERS5_S8_, symObjAddr: 0x4D64, symBinAddr: 0x10000E4A4, symSize: 0x3C }
  - { offsetInCU: 0xE479, offset: 0x2C6B7, size: 0x8, addend: 0x0, symName: __ZNSt3__14moveB8ue170006INS_16reverse_iteratorIPP6PlayerEES5_EET0_T_S7_S6_, symObjAddr: 0x4DA0, symBinAddr: 0x10000E4E0, symSize: 0x78 }
  - { offsetInCU: 0xE4D3, offset: 0x2C711, size: 0x8, addend: 0x0, symName: __ZNSt3__16__moveB8ue170006INS_17_ClassicAlgPolicyENS_16reverse_iteratorIPP6PlayerEES6_S6_EENS_4pairIT0_T2_EES8_T1_S9_, symObjAddr: 0x4E18, symBinAddr: 0x10000E558, symSize: 0x64 }
  - { offsetInCU: 0xE53F, offset: 0x2C77D, size: 0x8, addend: 0x0, symName: __ZNSt3__123__dispatch_copy_or_moveB8ue170006INS_17_ClassicAlgPolicyENS_11__move_loopIS1_EENS_14__move_trivialENS_16reverse_iteratorIPP6PlayerEES9_S9_EENS_4pairIT2_T4_EESB_T3_SC_, symObjAddr: 0x4E7C, symBinAddr: 0x10000E5BC, symSize: 0x64 }
  - { offsetInCU: 0xE5BD, offset: 0x2C7FB, size: 0x8, addend: 0x0, symName: __ZNSt3__121__unwrap_and_dispatchB8ue170006INS_10__overloadINS_11__move_loopINS_17_ClassicAlgPolicyEEENS_14__move_trivialEEENS_16reverse_iteratorIPP6PlayerEESB_SB_Li0EEENS_4pairIT0_T2_EESD_T1_SE_, symObjAddr: 0x4EE0, symBinAddr: 0x10000E620, symSize: 0x12C }
  - { offsetInCU: 0xE64E, offset: 0x2C88C, size: 0x8, addend: 0x0, symName: __ZNSt3__114__unwrap_rangeB8ue170006INS_16reverse_iteratorIPP6PlayerEES5_EENS_4pairIT0_S7_EET_S9_, symObjAddr: 0x500C, symBinAddr: 0x10000E74C, symSize: 0x84 }
  - { offsetInCU: 0xE7C1, offset: 0x2C9FF, size: 0x8, addend: 0x0, symName: __ZNSt3__113__unwrap_iterB8ue170006INS_16reverse_iteratorIPP6PlayerEENS_18__unwrap_iter_implIS5_Lb0EEELi0EEEDTclsrT0_8__unwrapclsr3stdE7declvalIT_EEEES9_, symObjAddr: 0x5130, symBinAddr: 0x10000E870, symSize: 0x44 }
  - { offsetInCU: 0xE806, offset: 0x2CA44, size: 0x8, addend: 0x0, symName: __ZNSt3__19make_pairB8ue170006INS_16reverse_iteratorIPP6PlayerEES5_EENS_4pairINS_18__unwrap_ref_decayIT_E4typeENS7_IT0_E4typeEEEOS8_OSB_, symObjAddr: 0x5174, symBinAddr: 0x10000E8B4, symSize: 0x38 }
  - { offsetInCU: 0xE855, offset: 0x2CA93, size: 0x8, addend: 0x0, symName: __ZNSt3__114__rewrap_rangeB8ue170006INS_16reverse_iteratorIPP6PlayerEES5_EET_S6_T0_, symObjAddr: 0x51AC, symBinAddr: 0x10000E8EC, symSize: 0x5C }
  - { offsetInCU: 0xE8A1, offset: 0x2CADF, size: 0x8, addend: 0x0, symName: __ZNSt3__113__rewrap_iterB8ue170006INS_16reverse_iteratorIPP6PlayerEES5_NS_18__unwrap_iter_implIS5_Lb0EEEEET_S8_T0_, symObjAddr: 0x5208, symBinAddr: 0x10000E948, symSize: 0x74 }
  - { offsetInCU: 0xE8F6, offset: 0x2CB34, size: 0x8, addend: 0x0, symName: __ZNSt3__1neB8ue170006IPP6PlayerS3_EEbRKNS_16reverse_iteratorIT_EERKNS4_IT0_EE, symObjAddr: 0x527C, symBinAddr: 0x10000E9BC, symSize: 0x48 }
  - { offsetInCU: 0xF546, offset: 0x2D784, size: 0x8, addend: 0x0, symName: __ZNSt3__16vectorIP6PlayerNS_9allocatorIS2_EEE26__swap_out_circular_bufferERNS_14__split_bufferIS2_RS4_EE, symObjAddr: 0x48B8, symBinAddr: 0x10000E078, symSize: 0x110 }
  - { offsetInCU: 0x1130D, offset: 0x2F54B, size: 0x8, addend: 0x0, symName: _main, symObjAddr: 0x0, symBinAddr: 0x10000AACC, symSize: 0x7B4 }
  - { offsetInCU: 0x1146D, offset: 0x2F6AB, size: 0x8, addend: 0x0, symName: __ZNSt3__113basic_ostreamIcNS_11char_traitsIcEEElsB8ue170006EPFRS3_S4_E, symObjAddr: 0x7FC, symBinAddr: 0x10000B280, symSize: 0x2C }
  - { offsetInCU: 0x115C0, offset: 0x2F7FE, size: 0x8, addend: 0x0, symName: __ZNSt3__114basic_ifstreamIcNS_11char_traitsIcEEEC1EPKcj, symObjAddr: 0x880, symBinAddr: 0x10000B304, symSize: 0x16C }
  - { offsetInCU: 0x1160E, offset: 0x2F84C, size: 0x8, addend: 0x0, symName: __ZNSt3__112basic_stringIcNS_11char_traitsIcEENS_9allocatorIcEEEC1B8ue170006ILi0EEEPKc, symObjAddr: 0x9EC, symBinAddr: 0x10000B470, symSize: 0x34 }
  - { offsetInCU: 0x1164C, offset: 0x2F88A, size: 0x8, addend: 0x0, symName: __ZNKSt3__114basic_ifstreamIcNS_11char_traitsIcEEE7is_openEv, symObjAddr: 0xA54, symBinAddr: 0x10000B4A4, symSize: 0x2C }
  - { offsetInCU: 0x11673, offset: 0x2F8B1, size: 0x8, addend: 0x0, symName: __ZNSt3__16vectorIP6PlayerNS_9allocatorIS2_EEEC1B8ue170006Ev, symObjAddr: 0xB2C, symBinAddr: 0x10000B4D0, symSize: 0x2C }
  - { offsetInCU: 0x1169B, offset: 0x2F8D9, size: 0x8, addend: 0x0, symName: __ZNSt3__16vectorIP6PlayerNS_9allocatorIS2_EEE9push_backB8ue170006EOS2_, symObjAddr: 0xB58, symBinAddr: 0x10000B4FC, symSize: 0x6C }
  - { offsetInCU: 0x116D1, offset: 0x2F90F, size: 0x8, addend: 0x0, symName: __ZNSt3__16vectorIP6PlayerNS_9allocatorIS2_EEEC1ERKS5_, symObjAddr: 0xBC4, symBinAddr: 0x10000B568, symSize: 0x34 }
  - { offsetInCU: 0x11925, offset: 0x2FB63, size: 0x8, addend: 0x0, symName: __ZN4GameC1ENSt3__16vectorIP6PlayerNS0_9allocatorIS3_EEEE4Packib, symObjAddr: 0xBF8, symBinAddr: 0x10000B59C, symSize: 0x58 }
  - { offsetInCU: 0x11987, offset: 0x2FBC5, size: 0x8, addend: 0x0, symName: __ZNSt3__16vectorIP6PlayerNS_9allocatorIS2_EEED1B8ue170006Ev, symObjAddr: 0xC50, symBinAddr: 0x10000B5F4, symSize: 0x2C }
  - { offsetInCU: 0x119AF, offset: 0x2FBED, size: 0x8, addend: 0x0, symName: __ZN4Game4playEv, symObjAddr: 0xC7C, symBinAddr: 0x10000B620, symSize: 0x200 }
  - { offsetInCU: 0x119FD, offset: 0x2FC3B, size: 0x8, addend: 0x0, symName: __ZNKSt3__16vectorIP6PlayerNS_9allocatorIS2_EEE4sizeB8ue170006Ev, symObjAddr: 0xE7C, symBinAddr: 0x10000B820, symSize: 0x28 }
  - { offsetInCU: 0x11A22, offset: 0x2FC60, size: 0x8, addend: 0x0, symName: __ZNSt3__16vectorIP6PlayerNS_9allocatorIS2_EEEixB8ue170006Em, symObjAddr: 0xEA4, symBinAddr: 0x10000B848, symSize: 0x24 }
  - { offsetInCU: 0x11A58, offset: 0x2FC96, size: 0x8, addend: 0x0, symName: __ZN4GameD1Ev, symObjAddr: 0xEC8, symBinAddr: 0x10000B86C, symSize: 0x2C }
  - { offsetInCU: 0x11A87, offset: 0x2FCC5, size: 0x8, addend: 0x0, symName: __ZNSt3__114basic_ifstreamIcNS_11char_traitsIcEEED1Ev, symObjAddr: 0xEF4, symBinAddr: 0x10000B898, symSize: 0x40 }
  - { offsetInCU: 0x11AB3, offset: 0x2FCF1, size: 0x8, addend: 0x0, symName: __ZN4GameC2ENSt3__16vectorIP6PlayerNS0_9allocatorIS3_EEEE4Packib, symObjAddr: 0xF34, symBinAddr: 0x10000B8D8, symSize: 0x74 }
  - { offsetInCU: 0x11B15, offset: 0x2FD53, size: 0x8, addend: 0x0, symName: __ZN4Game8playHandEiRiS0_, symObjAddr: 0xFA8, symBinAddr: 0x10000B94C, symSize: 0x2EC }
  - { offsetInCU: 0x11BE4, offset: 0x2FE22, size: 0x8, addend: 0x0, symName: __ZN4Game4dealEi, symObjAddr: 0x12E0, symBinAddr: 0x10000BC38, symSize: 0x380 }
  - { offsetInCU: 0x11C87, offset: 0x2FEC5, size: 0x8, addend: 0x0, symName: __ZN4Game16make_trump_roundER4Suit4Cardi, symObjAddr: 0x1660, symBinAddr: 0x10000BFB8, symSize: 0x344 }
  - { offsetInCU: 0x11D53, offset: 0x2FF91, size: 0x8, addend: 0x0, symName: __ZN4Game10play_trickEi4SuitRii, symObjAddr: 0x19A4, symBinAddr: 0x10000C2FC, symSize: 0x26C }
  - { offsetInCU: 0x11E1F, offset: 0x3005D, size: 0x8, addend: 0x0, symName: __ZN4Game12point_assignEiiRiS0_, symObjAddr: 0x1C10, symBinAddr: 0x10000C568, symSize: 0x340 }
  - { offsetInCU: 0x11EBA, offset: 0x300F8, size: 0x8, addend: 0x0, symName: __ZN4GameD2Ev, symObjAddr: 0x2BC0, symBinAddr: 0x10000C8A8, symSize: 0x2C }
  - { offsetInCU: 0x11EE4, offset: 0x30122, size: 0x8, addend: 0x0, symName: __ZNSt3__114basic_ifstreamIcNS_11char_traitsIcEEED2Ev, symObjAddr: 0x2BEC, symBinAddr: 0x10000C8D4, symSize: 0x64 }
  - { offsetInCU: 0x11F1C, offset: 0x3015A, size: 0x8, addend: 0x0, symName: __ZTv0_n24_NSt3__114basic_ifstreamIcNS_11char_traitsIcEEED1Ev, symObjAddr: 0x2C50, symBinAddr: 0x10000C938, symSize: 0x28 }
  - { offsetInCU: 0x11F33, offset: 0x30171, size: 0x8, addend: 0x0, symName: __ZNSt3__16vectorIP6PlayerNS_9allocatorIS2_EEEC2ERKS5_, symObjAddr: 0x2C78, symBinAddr: 0x10000C960, symSize: 0x94 }
  - { offsetInCU: 0x11F77, offset: 0x301B5, size: 0x8, addend: 0x0, symName: __ZNSt3__116allocator_traitsINS_9allocatorIP6PlayerEEE37select_on_container_copy_constructionB8ue170006IS4_vvEES4_RKS4_, symObjAddr: 0x2D0C, symBinAddr: 0x10000C9F4, symSize: 0x10 }
  - { offsetInCU: 0x11FA6, offset: 0x301E4, size: 0x8, addend: 0x0, symName: __ZNKSt3__16vectorIP6PlayerNS_9allocatorIS2_EEE7__allocB8ue170006Ev, symObjAddr: 0x2D1C, symBinAddr: 0x10000CA04, symSize: 0x28 }
  - { offsetInCU: 0x11FD4, offset: 0x30212, size: 0x8, addend: 0x0, symName: __ZNSt3__117__compressed_pairIPP6PlayerNS_9allocatorIS2_EEEC1B8ue170006IDnS5_EEOT_OT0_, symObjAddr: 0x2D44, symBinAddr: 0x10000CA2C, symSize: 0x3C }
  - { offsetInCU: 0x1202A, offset: 0x30268, size: 0x8, addend: 0x0, symName: __ZNSt3__16vectorIP6PlayerNS_9allocatorIS2_EEE16__init_with_sizeB8ue170006IPS2_S7_EEvT_T0_m, symObjAddr: 0x2D80, symBinAddr: 0x10000CA68, symSize: 0xB8 }
  - { offsetInCU: 0x1209C, offset: 0x302DA, size: 0x8, addend: 0x0, symName: __ZNKSt3__117__compressed_pairIPP6PlayerNS_9allocatorIS2_EEE6secondB8ue170006Ev, symObjAddr: 0x2E38, symBinAddr: 0x10000CB20, symSize: 0x24 }
  - { offsetInCU: 0x120C0, offset: 0x302FE, size: 0x8, addend: 0x0, symName: __ZNKSt3__122__compressed_pair_elemINS_9allocatorIP6PlayerEELi1ELb1EE5__getB8ue170006Ev, symObjAddr: 0x2E5C, symBinAddr: 0x10000CB44, symSize: 0x14 }
  - { offsetInCU: 0x120E5, offset: 0x30323, size: 0x8, addend: 0x0, symName: __ZNSt3__117__compressed_pairIPP6PlayerNS_9allocatorIS2_EEEC2B8ue170006IDnS5_EEOT_OT0_, symObjAddr: 0x2E70, symBinAddr: 0x10000CB58, symSize: 0x44 }
  - { offsetInCU: 0x1213B, offset: 0x30379, size: 0x8, addend: 0x0, symName: __ZNSt3__122__compressed_pair_elemIPP6PlayerLi0ELb0EEC2B8ue170006IDnvEEOT_, symObjAddr: 0x2EB4, symBinAddr: 0x10000CB9C, symSize: 0x1C }
  - { offsetInCU: 0x1217C, offset: 0x303BA, size: 0x8, addend: 0x0, symName: __ZNSt3__122__compressed_pair_elemINS_9allocatorIP6PlayerEELi1ELb1EEC2B8ue170006IS4_vEEOT_, symObjAddr: 0x2ED0, symBinAddr: 0x10000CBB8, symSize: 0x18 }
  - { offsetInCU: 0x121BD, offset: 0x303FB, size: 0x8, addend: 0x0, symName: __ZNSt3__16vectorIP6PlayerNS_9allocatorIS2_EEE16__destroy_vectorC1B8ue170006ERS5_, symObjAddr: 0x2F28, symBinAddr: 0x10000CC10, symSize: 0x34 }
  - { offsetInCU: 0x121F4, offset: 0x30432, size: 0x8, addend: 0x0, symName: __ZNSt3__16vectorIP6PlayerNS_9allocatorIS2_EEE11__vallocateB8ue170006Em, symObjAddr: 0x2F5C, symBinAddr: 0x10000CC44, symSize: 0xAC }
  - { offsetInCU: 0x12236, offset: 0x30474, size: 0x8, addend: 0x0, symName: __ZNSt3__16vectorIP6PlayerNS_9allocatorIS2_EEE18__construct_at_endIPS2_S7_EEvT_T0_m, symObjAddr: 0x3008, symBinAddr: 0x10000CCF0, symSize: 0x8C }
  - { offsetInCU: 0x122AB, offset: 0x304E9, size: 0x8, addend: 0x0, symName: __ZNSt3__128__exception_guard_exceptionsINS_6vectorIP6PlayerNS_9allocatorIS3_EEE16__destroy_vectorEE10__completeB8ue170006Ev, symObjAddr: 0x3094, symBinAddr: 0x10000CD7C, symSize: 0x1C }
  - { offsetInCU: 0x122D0, offset: 0x3050E, size: 0x8, addend: 0x0, symName: __ZNSt3__128__exception_guard_exceptionsINS_6vectorIP6PlayerNS_9allocatorIS3_EEE16__destroy_vectorEED1B8ue170006Ev, symObjAddr: 0x30B0, symBinAddr: 0x10000CD98, symSize: 0x2C }
  - { offsetInCU: 0x122F8, offset: 0x30536, size: 0x8, addend: 0x0, symName: __ZNSt3__128__exception_guard_exceptionsINS_6vectorIP6PlayerNS_9allocatorIS3_EEE16__destroy_vectorEEC1B8ue170006ES7_, symObjAddr: 0x30DC, symBinAddr: 0x10000CDC4, symSize: 0x34 }
  - { offsetInCU: 0x1232E, offset: 0x3056C, size: 0x8, addend: 0x0, symName: __ZNSt3__128__exception_guard_exceptionsINS_6vectorIP6PlayerNS_9allocatorIS3_EEE16__destroy_vectorEEC2B8ue170006ES7_, symObjAddr: 0x3110, symBinAddr: 0x10000CDF8, symSize: 0x24 }
  - { offsetInCU: 0x12365, offset: 0x305A3, size: 0x8, addend: 0x0, symName: __ZNSt3__16vectorIP6PlayerNS_9allocatorIS2_EEE16__destroy_vectorC2B8ue170006ERS5_, symObjAddr: 0x3134, symBinAddr: 0x10000CE1C, symSize: 0x20 }
  - { offsetInCU: 0x1239D, offset: 0x305DB, size: 0x8, addend: 0x0, symName: __ZNKSt3__16vectorIP6PlayerNS_9allocatorIS2_EEE8max_sizeEv, symObjAddr: 0x3154, symBinAddr: 0x10000CE3C, symSize: 0x60 }
  - { offsetInCU: 0x123C4, offset: 0x30602, size: 0x8, addend: 0x0, symName: __ZNKSt3__16vectorIP6PlayerNS_9allocatorIS2_EEE20__throw_length_errorB8ue170006Ev, symObjAddr: 0x31B4, symBinAddr: 0x10000CE9C, symSize: 0x1C }
  - { offsetInCU: 0x123E8, offset: 0x30626, size: 0x8, addend: 0x0, symName: __ZNSt3__16vectorIP6PlayerNS_9allocatorIS2_EEE7__allocB8ue170006Ev, symObjAddr: 0x3210, symBinAddr: 0x10000CEF8, symSize: 0x28 }
  - { offsetInCU: 0x1240C, offset: 0x3064A, size: 0x8, addend: 0x0, symName: __ZNSt3__16vectorIP6PlayerNS_9allocatorIS2_EEE9__end_capB8ue170006Ev, symObjAddr: 0x3238, symBinAddr: 0x10000CF20, symSize: 0x28 }
  - { offsetInCU: 0x12430, offset: 0x3066E, size: 0x8, addend: 0x0, symName: __ZNKSt3__16vectorIP6PlayerNS_9allocatorIS2_EEE14__annotate_newB8ue170006Em, symObjAddr: 0x3260, symBinAddr: 0x10000CF48, symSize: 0xAC }
  - { offsetInCU: 0x12463, offset: 0x306A1, size: 0x8, addend: 0x0, symName: __ZNSt3__116allocator_traitsINS_9allocatorIP6PlayerEEE8max_sizeB8ue170006IS4_vEEmRKS4_, symObjAddr: 0x3338, symBinAddr: 0x10000CFF4, symSize: 0x24 }
  - { offsetInCU: 0x12491, offset: 0x306CF, size: 0x8, addend: 0x0, symName: __ZNKSt3__19allocatorIP6PlayerE8max_sizeB8ue170006Ev, symObjAddr: 0x33F8, symBinAddr: 0x10000D018, symSize: 0x14 }
  - { offsetInCU: 0x124B6, offset: 0x306F4, size: 0x8, addend: 0x0, symName: __ZNSt3__19allocatorIP6PlayerE8allocateB8ue170006Em, symObjAddr: 0x34F8, symBinAddr: 0x10000D02C, symSize: 0x58 }
  - { offsetInCU: 0x124E8, offset: 0x30726, size: 0x8, addend: 0x0, symName: __ZNSt3__117__compressed_pairIPP6PlayerNS_9allocatorIS2_EEE6secondB8ue170006Ev, symObjAddr: 0x3654, symBinAddr: 0x10000D084, symSize: 0x24 }
  - { offsetInCU: 0x1250C, offset: 0x3074A, size: 0x8, addend: 0x0, symName: __ZNSt3__122__compressed_pair_elemINS_9allocatorIP6PlayerEELi1ELb1EE5__getB8ue170006Ev, symObjAddr: 0x3678, symBinAddr: 0x10000D0A8, symSize: 0x14 }
  - { offsetInCU: 0x12531, offset: 0x3076F, size: 0x8, addend: 0x0, symName: __ZNSt3__117__compressed_pairIPP6PlayerNS_9allocatorIS2_EEE5firstB8ue170006Ev, symObjAddr: 0x368C, symBinAddr: 0x10000D0BC, symSize: 0x24 }
  - { offsetInCU: 0x12555, offset: 0x30793, size: 0x8, addend: 0x0, symName: __ZNSt3__122__compressed_pair_elemIPP6PlayerLi0ELb0EE5__getB8ue170006Ev, symObjAddr: 0x36B0, symBinAddr: 0x10000D0E0, symSize: 0x14 }
  - { offsetInCU: 0x1257A, offset: 0x307B8, size: 0x8, addend: 0x0, symName: __ZNKSt3__16vectorIP6PlayerNS_9allocatorIS2_EEE31__annotate_contiguous_containerB8ue170006EPKvS7_S7_S7_, symObjAddr: 0x36C4, symBinAddr: 0x10000D0F4, symSize: 0x20 }
  - { offsetInCU: 0x125CF, offset: 0x3080D, size: 0x8, addend: 0x0, symName: __ZNKSt3__16vectorIP6PlayerNS_9allocatorIS2_EEE4dataB8ue170006Ev, symObjAddr: 0x36E4, symBinAddr: 0x10000D114, symSize: 0x28 }
  - { offsetInCU: 0x125F3, offset: 0x30831, size: 0x8, addend: 0x0, symName: __ZNKSt3__16vectorIP6PlayerNS_9allocatorIS2_EEE8capacityB8ue170006Ev, symObjAddr: 0x370C, symBinAddr: 0x10000D13C, symSize: 0x40 }
  - { offsetInCU: 0x12617, offset: 0x30855, size: 0x8, addend: 0x0, symName: __ZNKSt3__16vectorIP6PlayerNS_9allocatorIS2_EEE9__end_capB8ue170006Ev, symObjAddr: 0x3760, symBinAddr: 0x10000D190, symSize: 0x28 }
  - { offsetInCU: 0x1263B, offset: 0x30879, size: 0x8, addend: 0x0, symName: __ZNKSt3__117__compressed_pairIPP6PlayerNS_9allocatorIS2_EEE5firstB8ue170006Ev, symObjAddr: 0x3788, symBinAddr: 0x10000D1B8, symSize: 0x24 }
  - { offsetInCU: 0x1265F, offset: 0x3089D, size: 0x8, addend: 0x0, symName: __ZNKSt3__122__compressed_pair_elemIPP6PlayerLi0ELb0EE5__getB8ue170006Ev, symObjAddr: 0x37AC, symBinAddr: 0x10000D1DC, symSize: 0x14 }
  - { offsetInCU: 0x1269D, offset: 0x308DB, size: 0x8, addend: 0x0, symName: __ZNSt3__16vectorIP6PlayerNS_9allocatorIS2_EEE21_ConstructTransactionC1B8ue170006ERS5_m, symObjAddr: 0x37C0, symBinAddr: 0x10000D1F0, symSize: 0x3C }
  - { offsetInCU: 0x126E3, offset: 0x30921, size: 0x8, addend: 0x0, symName: __ZNSt3__16vectorIP6PlayerNS_9allocatorIS2_EEE21_ConstructTransactionD1B8ue170006Ev, symObjAddr: 0x387C, symBinAddr: 0x10000D2AC, symSize: 0x2C }
  - { offsetInCU: 0x1270B, offset: 0x30949, size: 0x8, addend: 0x0, symName: __ZNSt3__16vectorIP6PlayerNS_9allocatorIS2_EEE21_ConstructTransactionC2B8ue170006ERS5_m, symObjAddr: 0x38A8, symBinAddr: 0x10000D2D8, symSize: 0x44 }
  - { offsetInCU: 0x12770, offset: 0x309AE, size: 0x8, addend: 0x0, symName: __ZNSt3__14pairIPP6PlayerS3_EC1B8ue170006IS3_S3_LPv0EEEOT_OT0_, symObjAddr: 0x3A1C, symBinAddr: 0x10000D44C, symSize: 0x3C }
  - { offsetInCU: 0x127CD, offset: 0x30A0B, size: 0x8, addend: 0x0, symName: __ZNSt3__14pairIPP6PlayerS3_EC2B8ue170006IS3_S3_LPv0EEEOT_OT0_, symObjAddr: 0x3A58, symBinAddr: 0x10000D488, symSize: 0x34 }
  - { offsetInCU: 0x12835, offset: 0x30A73, size: 0x8, addend: 0x0, symName: __ZNKSt3__114__copy_trivialclB8ue170006IP6PlayerS3_Li0EEENS_4pairIPT_PT0_EES6_S6_S8_, symObjAddr: 0x3C08, symBinAddr: 0x10000D638, symSize: 0x48 }
  - { offsetInCU: 0x1289C, offset: 0x30ADA, size: 0x8, addend: 0x0, symName: __ZNSt3__14pairIPP6PlayerS3_EC1B8ue170006IRS3_S3_LPv0EEEOT_OT0_, symObjAddr: 0x3D98, symBinAddr: 0x10000D7C8, symSize: 0x3C }
  - { offsetInCU: 0x128F9, offset: 0x30B37, size: 0x8, addend: 0x0, symName: __ZNSt3__14pairIPP6PlayerS3_EC2B8ue170006IRS3_S3_LPv0EEEOT_OT0_, symObjAddr: 0x3DD4, symBinAddr: 0x10000D804, symSize: 0x34 }
  - { offsetInCU: 0x12957, offset: 0x30B95, size: 0x8, addend: 0x0, symName: __ZNSt3__118__unwrap_iter_implIPP6PlayerLb1EE8__unwrapB8ue170006ES3_, symObjAddr: 0x3E08, symBinAddr: 0x10000D838, symSize: 0x24 }
  - { offsetInCU: 0x1297A, offset: 0x30BB8, size: 0x8, addend: 0x0, symName: __ZNSt3__118__unwrap_iter_implIPP6PlayerLb1EE8__rewrapB8ue170006ES3_S3_, symObjAddr: 0x3E2C, symBinAddr: 0x10000D85C, symSize: 0x50 }
  - { offsetInCU: 0x129AB, offset: 0x30BE9, size: 0x8, addend: 0x0, symName: __ZNSt3__16vectorIP6PlayerNS_9allocatorIS2_EEE21_ConstructTransactionD2B8ue170006Ev, symObjAddr: 0x3E7C, symBinAddr: 0x10000D8AC, symSize: 0x20 }
  - { offsetInCU: 0x129D4, offset: 0x30C12, size: 0x8, addend: 0x0, symName: __ZNSt3__128__exception_guard_exceptionsINS_6vectorIP6PlayerNS_9allocatorIS3_EEE16__destroy_vectorEED2B8ue170006Ev, symObjAddr: 0x3E9C, symBinAddr: 0x10000D8CC, symSize: 0x50 }
  - { offsetInCU: 0x129FC, offset: 0x30C3A, size: 0x8, addend: 0x0, symName: __ZNSt3__16vectorIP6PlayerNS_9allocatorIS2_EEE16__destroy_vectorclB8ue170006Ev, symObjAddr: 0x3EEC, symBinAddr: 0x10000D91C, symSize: 0x90 }
  - { offsetInCU: 0x12A20, offset: 0x30C5E, size: 0x8, addend: 0x0, symName: __ZNSt3__16vectorIP6PlayerNS_9allocatorIS2_EEE7__clearB8ue170006Ev, symObjAddr: 0x3F7C, symBinAddr: 0x10000D9AC, symSize: 0x28 }
  - { offsetInCU: 0x12A44, offset: 0x30C82, size: 0x8, addend: 0x0, symName: __ZNKSt3__16vectorIP6PlayerNS_9allocatorIS2_EEE17__annotate_deleteB8ue170006Ev, symObjAddr: 0x3FA4, symBinAddr: 0x10000D9D4, symSize: 0xB8 }
  - { offsetInCU: 0x12A68, offset: 0x30CA6, size: 0x8, addend: 0x0, symName: __ZNSt3__116allocator_traitsINS_9allocatorIP6PlayerEEE10deallocateB8ue170006ERS4_PS3_m, symObjAddr: 0x405C, symBinAddr: 0x10000DA8C, symSize: 0x34 }
  - { offsetInCU: 0x12AAA, offset: 0x30CE8, size: 0x8, addend: 0x0, symName: __ZNSt3__16vectorIP6PlayerNS_9allocatorIS2_EEE22__base_destruct_at_endB8ue170006EPS2_, symObjAddr: 0x4090, symBinAddr: 0x10000DAC0, symSize: 0x8C }
  - { offsetInCU: 0x12AEC, offset: 0x30D2A, size: 0x8, addend: 0x0, symName: __ZNSt3__116allocator_traitsINS_9allocatorIP6PlayerEEE7destroyB8ue170006IS3_vEEvRS4_PT_, symObjAddr: 0x411C, symBinAddr: 0x10000DB4C, symSize: 0x2C }
  - { offsetInCU: 0x12B29, offset: 0x30D67, size: 0x8, addend: 0x0, symName: __ZNSt3__19allocatorIP6PlayerE7destroyB8ue170006EPS2_, symObjAddr: 0x4148, symBinAddr: 0x10000DB78, symSize: 0x14 }
  - { offsetInCU: 0x12B5C, offset: 0x30D9A, size: 0x8, addend: 0x0, symName: __ZNSt3__19allocatorIP6PlayerE10deallocateB8ue170006EPS2_m, symObjAddr: 0x415C, symBinAddr: 0x10000DB8C, symSize: 0x40 }
  - { offsetInCU: 0x12B9C, offset: 0x30DDA, size: 0x8, addend: 0x0, symName: __ZNSt3__16vectorIP6PlayerNS_9allocatorIS2_EEED2B8ue170006Ev, symObjAddr: 0x42A4, symBinAddr: 0x10000DBCC, symSize: 0x40 }
  - { offsetInCU: 0x12BC4, offset: 0x30E02, size: 0x8, addend: 0x0, symName: __ZNSt3__112basic_stringIcNS_11char_traitsIcEENS_9allocatorIcEEEC2B8ue170006ILi0EEEPKc, symObjAddr: 0x444C, symBinAddr: 0x10000DC0C, symSize: 0x58 }
  - { offsetInCU: 0x12C02, offset: 0x30E40, size: 0x8, addend: 0x0, symName: __ZNKSt3__113basic_filebufIcNS_11char_traitsIcEEE7is_openEv, symObjAddr: 0x44A4, symBinAddr: 0x10000DC64, symSize: 0x24 }
  - { offsetInCU: 0x12C29, offset: 0x30E67, size: 0x8, addend: 0x0, symName: __ZNSt3__16vectorIP6PlayerNS_9allocatorIS2_EEEC2B8ue170006Ev, symObjAddr: 0x44C8, symBinAddr: 0x10000DC88, symSize: 0x4C }
  - { offsetInCU: 0x12C51, offset: 0x30E8F, size: 0x8, addend: 0x0, symName: __ZNSt3__117__compressed_pairIPP6PlayerNS_9allocatorIS2_EEEC1B8ue170006IDnNS_18__default_init_tagEEEOT_OT0_, symObjAddr: 0x4514, symBinAddr: 0x10000DCD4, symSize: 0x3C }
  - { offsetInCU: 0x12CA7, offset: 0x30EE5, size: 0x8, addend: 0x0, symName: __ZNSt3__117__compressed_pairIPP6PlayerNS_9allocatorIS2_EEEC2B8ue170006IDnNS_18__default_init_tagEEEOT_OT0_, symObjAddr: 0x4550, symBinAddr: 0x10000DD10, symSize: 0x40 }
  - { offsetInCU: 0x12CFD, offset: 0x30F3B, size: 0x8, addend: 0x0, symName: __ZNSt3__122__compressed_pair_elemINS_9allocatorIP6PlayerEELi1ELb1EEC2B8ue170006ENS_18__default_init_tagE, symObjAddr: 0x4590, symBinAddr: 0x10000DD50, symSize: 0x2C }
  - { offsetInCU: 0x12D30, offset: 0x30F6E, size: 0x8, addend: 0x0, symName: __ZNSt3__19allocatorIP6PlayerEC2B8ue170006Ev, symObjAddr: 0x45BC, symBinAddr: 0x10000DD7C, symSize: 0x2C }
  - { offsetInCU: 0x12D58, offset: 0x30F96, size: 0x8, addend: 0x0, symName: __ZNSt3__116__non_trivial_ifILb1ENS_9allocatorIP6PlayerEEEC2B8ue170006Ev, symObjAddr: 0x45E8, symBinAddr: 0x10000DDA8, symSize: 0x14 }
  - { offsetInCU: 0x12D86, offset: 0x30FC4, size: 0x8, addend: 0x0, symName: __ZNSt3__16vectorIP6PlayerNS_9allocatorIS2_EEE22__construct_one_at_endB8ue170006IJS2_EEEvDpOT_, symObjAddr: 0x45FC, symBinAddr: 0x10000DDBC, symSize: 0x90 }
  - { offsetInCU: 0x12DD5, offset: 0x31013, size: 0x8, addend: 0x0, symName: __ZNSt3__16vectorIP6PlayerNS_9allocatorIS2_EEE21__push_back_slow_pathIS2_EEvOT_, symObjAddr: 0x468C, symBinAddr: 0x10000DE4C, symSize: 0xD8 }
  - { offsetInCU: 0x12E32, offset: 0x31070, size: 0x8, addend: 0x0, symName: __ZNSt3__116allocator_traitsINS_9allocatorIP6PlayerEEE9constructB8ue170006IS3_JS3_EvEEvRS4_PT_DpOT0_, symObjAddr: 0x4764, symBinAddr: 0x10000DF24, symSize: 0x34 }
  - { offsetInCU: 0x12E8B, offset: 0x310C9, size: 0x8, addend: 0x0, symName: __ZNSt3__19allocatorIP6PlayerE9constructB8ue170006IS2_JS2_EEEvPT_DpOT0_, symObjAddr: 0x4798, symBinAddr: 0x10000DF58, symSize: 0x28 }
  - { offsetInCU: 0x12EE2, offset: 0x31120, size: 0x8, addend: 0x0, symName: __ZNKSt3__16vectorIP6PlayerNS_9allocatorIS2_EEE11__recommendB8ue170006Em, symObjAddr: 0x47C0, symBinAddr: 0x10000DF80, symSize: 0xB4 }
  - { offsetInCU: 0x12F36, offset: 0x31174, size: 0x8, addend: 0x0, symName: __ZNSt3__114__split_bufferIP6PlayerRNS_9allocatorIS2_EEEC1EmmS5_, symObjAddr: 0x4874, symBinAddr: 0x10000E034, symSize: 0x44 }
  - { offsetInCU: 0x12F8B, offset: 0x311C9, size: 0x8, addend: 0x0, symName: __ZNSt3__114__split_bufferIP6PlayerRNS_9allocatorIS2_EEED1Ev, symObjAddr: 0x49C8, symBinAddr: 0x10000E188, symSize: 0x2C }
  - { offsetInCU: 0x12FB6, offset: 0x311F4, size: 0x8, addend: 0x0, symName: __ZNSt3__114__split_bufferIP6PlayerRNS_9allocatorIS2_EEEC2EmmS5_, symObjAddr: 0x4A74, symBinAddr: 0x10000E1B4, symSize: 0xD4 }
  - { offsetInCU: 0x13028, offset: 0x31266, size: 0x8, addend: 0x0, symName: __ZNSt3__117__compressed_pairIPP6PlayerRNS_9allocatorIS2_EEEC1B8ue170006IDnS6_EEOT_OT0_, symObjAddr: 0x4B48, symBinAddr: 0x10000E288, symSize: 0x3C }
  - { offsetInCU: 0x1307E, offset: 0x312BC, size: 0x8, addend: 0x0, symName: __ZNSt3__114__split_bufferIP6PlayerRNS_9allocatorIS2_EEE7__allocB8ue170006Ev, symObjAddr: 0x4B84, symBinAddr: 0x10000E2C4, symSize: 0x28 }
  - { offsetInCU: 0x130A2, offset: 0x312E0, size: 0x8, addend: 0x0, symName: __ZNSt3__114__split_bufferIP6PlayerRNS_9allocatorIS2_EEE9__end_capB8ue170006Ev, symObjAddr: 0x4BAC, symBinAddr: 0x10000E2EC, symSize: 0x28 }
  - { offsetInCU: 0x130C6, offset: 0x31304, size: 0x8, addend: 0x0, symName: __ZNSt3__117__compressed_pairIPP6PlayerRNS_9allocatorIS2_EEEC2B8ue170006IDnS6_EEOT_OT0_, symObjAddr: 0x4BD4, symBinAddr: 0x10000E314, symSize: 0x48 }
  - { offsetInCU: 0x1311C, offset: 0x3135A, size: 0x8, addend: 0x0, symName: __ZNSt3__122__compressed_pair_elemIRNS_9allocatorIP6PlayerEELi1ELb0EEC2B8ue170006IS5_vEEOT_, symObjAddr: 0x4C1C, symBinAddr: 0x10000E35C, symSize: 0x20 }
  - { offsetInCU: 0x1315D, offset: 0x3139B, size: 0x8, addend: 0x0, symName: __ZNSt3__117__compressed_pairIPP6PlayerRNS_9allocatorIS2_EEE6secondB8ue170006Ev, symObjAddr: 0x4C3C, symBinAddr: 0x10000E37C, symSize: 0x28 }
  - { offsetInCU: 0x13181, offset: 0x313BF, size: 0x8, addend: 0x0, symName: __ZNSt3__122__compressed_pair_elemIRNS_9allocatorIP6PlayerEELi1ELb0EE5__getB8ue170006Ev, symObjAddr: 0x4C64, symBinAddr: 0x10000E3A4, symSize: 0x18 }
  - { offsetInCU: 0x131A6, offset: 0x313E4, size: 0x8, addend: 0x0, symName: __ZNSt3__117__compressed_pairIPP6PlayerRNS_9allocatorIS2_EEE5firstB8ue170006Ev, symObjAddr: 0x4C7C, symBinAddr: 0x10000E3BC, symSize: 0x24 }
  - { offsetInCU: 0x131CA, offset: 0x31408, size: 0x8, addend: 0x0, symName: __ZNSt3__116reverse_iteratorIPP6PlayerEC1B8ue170006ES3_, symObjAddr: 0x4D18, symBinAddr: 0x10000E458, symSize: 0x34 }
  - { offsetInCU: 0x13200, offset: 0x3143E, size: 0x8, addend: 0x0, symName: __ZNKSt3__116reverse_iteratorIPP6PlayerE4baseB8ue170006Ev, symObjAddr: 0x4D4C, symBinAddr: 0x10000E48C, symSize: 0x18 }
  - { offsetInCU: 0x13248, offset: 0x31486, size: 0x8, addend: 0x0, symName: __ZNKSt3__111__move_loopINS_17_ClassicAlgPolicyEEclB8ue170006INS_16reverse_iteratorIPP6PlayerEES8_S8_EENS_4pairIT_T1_EESA_T0_SB_, symObjAddr: 0x5090, symBinAddr: 0x10000E7D0, symSize: 0xA0 }
  - { offsetInCU: 0x132B1, offset: 0x314EF, size: 0x8, addend: 0x0, symName: __ZNSt3__18_IterOpsINS_17_ClassicAlgPolicyEE11__iter_moveB8ue170006IRNS_16reverse_iteratorIPP6PlayerEEEENS_9enable_ifIXsr12is_referenceIDTdeclsr3stdE7declvalIRT_EEEEE5valueEDTclsr3stdE4movedeclsr3stdE7declvalISC_EEEEE4typeEOSB_, symObjAddr: 0x52C4, symBinAddr: 0x10000EA04, symSize: 0x28 }
  - { offsetInCU: 0x132DD, offset: 0x3151B, size: 0x8, addend: 0x0, symName: __ZNKSt3__116reverse_iteratorIPP6PlayerEdeB8ue170006Ev, symObjAddr: 0x52EC, symBinAddr: 0x10000EA2C, symSize: 0x28 }
  - { offsetInCU: 0x13310, offset: 0x3154E, size: 0x8, addend: 0x0, symName: __ZNSt3__116reverse_iteratorIPP6PlayerEppB8ue170006Ev, symObjAddr: 0x5314, symBinAddr: 0x10000EA54, symSize: 0x20 }
  - { offsetInCU: 0x13335, offset: 0x31573, size: 0x8, addend: 0x0, symName: __ZNSt3__18_IterOpsINS_17_ClassicAlgPolicyEE25__validate_iter_referenceB8ue170006IRNS_16reverse_iteratorIPP6PlayerEEEEvv, symObjAddr: 0x5334, symBinAddr: 0x10000EA74, symSize: 0x4 }
  - { offsetInCU: 0x13353, offset: 0x31591, size: 0x8, addend: 0x0, symName: __ZNSt3__118__unwrap_iter_implINS_16reverse_iteratorIPP6PlayerEELb0EE8__unwrapB8ue170006ES5_, symObjAddr: 0x5338, symBinAddr: 0x10000EA78, symSize: 0x24 }
  - { offsetInCU: 0x1337B, offset: 0x315B9, size: 0x8, addend: 0x0, symName: __ZNSt3__14pairINS_16reverse_iteratorIPP6PlayerEES5_EC1B8ue170006IS5_S5_LPv0EEEOT_OT0_, symObjAddr: 0x535C, symBinAddr: 0x10000EA9C, symSize: 0x3C }
  - { offsetInCU: 0x133D8, offset: 0x31616, size: 0x8, addend: 0x0, symName: __ZNSt3__14pairINS_16reverse_iteratorIPP6PlayerEES5_EC2B8ue170006IS5_S5_LPv0EEEOT_OT0_, symObjAddr: 0x5398, symBinAddr: 0x10000EAD8, symSize: 0x34 }
  - { offsetInCU: 0x13436, offset: 0x31674, size: 0x8, addend: 0x0, symName: __ZNSt3__118__unwrap_iter_implINS_16reverse_iteratorIPP6PlayerEELb0EE8__rewrapB8ue170006ES5_S5_, symObjAddr: 0x53CC, symBinAddr: 0x10000EB0C, symSize: 0x2C }
  - { offsetInCU: 0x13464, offset: 0x316A2, size: 0x8, addend: 0x0, symName: __ZNSt3__116reverse_iteratorIPP6PlayerEC2B8ue170006ES3_, symObjAddr: 0x53F8, symBinAddr: 0x10000EB38, symSize: 0x28 }
  - { offsetInCU: 0x1349B, offset: 0x316D9, size: 0x8, addend: 0x0, symName: __ZNSt3__114__split_bufferIP6PlayerRNS_9allocatorIS2_EEED2Ev, symObjAddr: 0x5420, symBinAddr: 0x10000EB60, symSize: 0x8C }
  - { offsetInCU: 0x134C6, offset: 0x31704, size: 0x8, addend: 0x0, symName: __ZNSt3__114__split_bufferIP6PlayerRNS_9allocatorIS2_EEE5clearB8ue170006Ev, symObjAddr: 0x54AC, symBinAddr: 0x10000EBEC, symSize: 0x28 }
  - { offsetInCU: 0x134EA, offset: 0x31728, size: 0x8, addend: 0x0, symName: __ZNKSt3__114__split_bufferIP6PlayerRNS_9allocatorIS2_EEE8capacityB8ue170006Ev, symObjAddr: 0x54D4, symBinAddr: 0x10000EC14, symSize: 0x40 }
  - { offsetInCU: 0x1350E, offset: 0x3174C, size: 0x8, addend: 0x0, symName: __ZNSt3__114__split_bufferIP6PlayerRNS_9allocatorIS2_EEE17__destruct_at_endB8ue170006EPS2_, symObjAddr: 0x5514, symBinAddr: 0x10000EC54, symSize: 0x2C }
  - { offsetInCU: 0x13540, offset: 0x3177E, size: 0x8, addend: 0x0, symName: __ZNSt3__114__split_bufferIP6PlayerRNS_9allocatorIS2_EEE17__destruct_at_endB8ue170006EPS2_NS_17integral_constantIbLb0EEE, symObjAddr: 0x5540, symBinAddr: 0x10000EC80, symSize: 0x80 }
  - { offsetInCU: 0x13580, offset: 0x317BE, size: 0x8, addend: 0x0, symName: __ZNKSt3__114__split_bufferIP6PlayerRNS_9allocatorIS2_EEE9__end_capB8ue170006Ev, symObjAddr: 0x55C0, symBinAddr: 0x10000ED00, symSize: 0x28 }
  - { offsetInCU: 0x135A4, offset: 0x317E2, size: 0x8, addend: 0x0, symName: __ZNKSt3__117__compressed_pairIPP6PlayerRNS_9allocatorIS2_EEE5firstB8ue170006Ev, symObjAddr: 0x55E8, symBinAddr: 0x10000ED28, symSize: 0x24 }
...
